; Listing generated by Microsoft (R) Optimizing Compiler Version 15.00.30729.01 

include listing.inc

INCLUDELIB MSVCRT
INCLUDELIB OLDNAMES

PUBLIC	??_C@_0DH@CHGFPFCL@Internal?5class?5for?5passing?5memor@ ; `string'
PUBLIC	??_C@_0BK@CCMHKJAM@rsrpsinr?4_memoryviewslice?$AA@ ; `string'
PUBLIC	??_C@_0BE@GJNHAHPO@rsrpsinr?4memoryview?$AA@	; `string'
PUBLIC	??_C@_04IAGNFIBA@size?$AA@			; `string'
PUBLIC	??_C@_06KGLHCPOD@nbytes?$AA@			; `string'
PUBLIC	??_C@_08BFHIGMPA@itemsize?$AA@			; `string'
PUBLIC	??_C@_04DMMOEENP@ndim?$AA@			; `string'
PUBLIC	??_C@_0L@ELCNMNAH@suboffsets?$AA@		; `string'
PUBLIC	??_C@_07IMKHLIIB@strides?$AA@			; `string'
PUBLIC	??_C@_05KFCIHKGL@shape?$AA@			; `string'
PUBLIC	??_C@_04BHIIPFEC@base?$AA@			; `string'
PUBLIC	??_C@_01GAPBHFFA@T?$AA@				; `string'
PUBLIC	??_C@_0N@BCHOHOEO@copy_fortran?$AA@		; `string'
PUBLIC	??_C@_04COAGEIMF@copy?$AA@			; `string'
PUBLIC	??_C@_0M@FBGIIHKF@is_f_contig?$AA@		; `string'
PUBLIC	??_C@_0M@BLPPMCOK@is_c_contig?$AA@		; `string'
PUBLIC	??_C@_0O@LDCFFKPD@rsrpsinr?4Enum?$AA@		; `string'
PUBLIC	??_C@_0P@HHBKLIDN@rsrpsinr?4array?$AA@		; `string'
PUBLIC	??_C@_07KCAJKBCG@memview?$AA@			; `string'
PUBLIC	??_C@_0BE@CCNCIHLB@__setstate_cython__?$AA@	; `string'
PUBLIC	??_C@_0BC@OLIMIKGB@__reduce_cython__?$AA@	; `string'
PUBLIC	??_C@_0M@GIDJPAP@__getattr__?$AA@		; `string'
PUBLIC	??_C@_0BE@OFCNINNK@__pyx_unpickle_Enum?$AA@	; `string'
PUBLIC	??_C@_0N@NLCAJHNH@get_coverage?$AA@		; `string'
PUBLIC	??_C@_04CNCNIFFP@gain?$AA@			; `string'
PUBLIC	??_C@_0BC@LEBODINL@set_antenna_hv_vv?$AA@	; `string'
PUBLIC	??_C@_0O@FNDOKFBP@rad_to_degree?$AA@		; `string'
PUBLIC	??_C@_0O@CNCFBNEJ@degree_to_rad?$AA@		; `string'
PUBLIC	??_C@_07GDNIBEMG@int64_t?$AA@			; `string'
PUBLIC	??_C@_07EHMDJLEA@uint8_t?$AA@			; `string'
PUBLIC	??_C@_07HDHLMKKB@DTYPE_t?$AA@			; `string'
PUBLIC	??_C@_08PNEKBLED@type?4pxd?$AA@			; `string'
PUBLIC	??_C@_0N@JDPHLOKK@stringsource?$AA@		; `string'
PUBLIC	??_C@_0N@MKALCPGB@__init__?4pxd?$AA@		; `string'
PUBLIC	??_C@_0N@BLBBADDG@rsrpsinr?4pyx?$AA@		; `string'
PUBLIC	??_C@_0L@DEABIHOI@rsrpsinr?4c?$AA@		; `string'
PUBLIC	__pyx_module_is_main_rsrpsinr
_BSS	SEGMENT
__pyx_n_s_zeros DQ 01H DUP (?)
__pyx_n_s_update DQ 01H DUP (?)
__pyx_n_s_unpack DQ 01H DUP (?)
__pyx_kp_u_unknown_dtype_code_in_numpy_pxd DQ 01H DUP (?)
__pyx_kp_s_unable_to_allocate_shape_and_str DQ 01H DUP (?)
__pyx_kp_s_unable_to_allocate_array_data DQ 01H DUP (?)
__pyx_n_s_uint8 DQ 01H DUP (?)
__pyx_n_s_test DQ 01H DUP (?)
__pyx_n_s_struct DQ 01H DUP (?)
__pyx_kp_s_stringsource DQ 01H DUP (?)
__pyx_kp_s_strided_and_indirect DQ 01H DUP (?)
__pyx_kp_s_strided_and_direct_or_indirect DQ 01H DUP (?)
__pyx_kp_s_strided_and_direct DQ 01H DUP (?)
__pyx_n_s_stop DQ 01H DUP (?)
__pyx_n_s_step DQ 01H DUP (?)
__pyx_n_s_start DQ 01H DUP (?)
__pyx_n_s_size DQ 01H DUP (?)
__pyx_n_s_setstate_cython DQ 01H DUP (?)
__pyx_n_s_setstate DQ 01H DUP (?)
__pyx_n_s_set_antenna_hv_vv DQ 01H DUP (?)
__pyx_kp_s_rsrpsinr_pyx DQ 01H DUP (?)
__pyx_n_s_rsrpsinr DQ 01H DUP (?)
__pyx_n_s_reshape DQ 01H DUP (?)
__pyx_n_s_reduce_ex DQ 01H DUP (?)
__pyx_n_s_reduce_cython DQ 01H DUP (?)
__pyx_n_s_reduce DQ 01H DUP (?)
__pyx_n_s_range DQ 01H DUP (?)
__pyx_n_s_rad_to_degree DQ 01H DUP (?)
__pyx_n_s_pyx_vtable DQ 01H DUP (?)
__pyx_n_s_pyx_unpickle_Enum DQ 01H DUP (?)
__pyx_n_s_pyx_result DQ 01H DUP (?)
__pyx_n_s_pyx_getbuffer DQ 01H DUP (?)
__pyx_n_s_pyx_PickleError DQ 01H DUP (?)
__pyx_n_s_pickle DQ 01H DUP (?)
__pyx_n_s_pack DQ 01H DUP (?)
__pyx_n_s_order DQ 01H DUP (?)
__pyx_n_s_ones DQ 01H DUP (?)
__pyx_kp_s_numpy_core_umath_failed_to_impor DQ 01H DUP (?)
__pyx_kp_s_numpy_core_multiarray_failed_to DQ 01H DUP (?)
__pyx_n_s_numpy DQ 01H DUP (?)
__pyx_n_s_np DQ	01H DUP (?)
__pyx_kp_s_no_default___reduce___due_to_non DQ 01H DUP (?)
__pyx_n_s_new DQ 01H DUP (?)
__pyx_n_s_ndim DQ 01H DUP (?)
__pyx_kp_u_ndarray_is_not_Fortran_contiguou DQ 01H DUP (?)
__pyx_kp_u_ndarray_is_not_C_contiguous DQ 01H DUP (?)
__pyx_n_s_name_2 DQ 01H DUP (?)
__pyx_n_s_memview DQ 01H DUP (?)
__pyx_n_s_main DQ 01H DUP (?)
__pyx_kp_s_itemsize_0_for_cython_array DQ 01H DUP (?)
__pyx_n_s_int64 DQ 01H DUP (?)
__pyx_n_s_import DQ 01H DUP (?)
__pyx_n_s_id DQ	01H DUP (?)
__pyx_kp_s_got_differing_extents_in_dimensi DQ 01H DUP (?)
__pyx_n_s_getstate DQ 01H DUP (?)
__pyx_n_s_get_coverage DQ 01H DUP (?)
__pyx_n_s_gain DQ 01H DUP (?)
__pyx_n_u_fortran DQ 01H DUP (?)
__pyx_n_s_fortran DQ 01H DUP (?)
__pyx_n_s_float64 DQ 01H DUP (?)
__pyx_n_s_error DQ 01H DUP (?)
__pyx_n_s_enumerate DQ 01H DUP (?)
__pyx_n_s_encode DQ 01H DUP (?)
__pyx_n_s_dtype DQ 01H DUP (?)
__pyx_n_s_dict DQ 01H DUP (?)
__pyx_n_s_degree_to_rad DQ 01H DUP (?)
__pyx_n_s_d DQ	01H DUP (?)
__pyx_kp_s_contiguous_and_indirect DQ 01H DUP (?)
__pyx_kp_s_contiguous_and_direct DQ 01H DUP (?)
__pyx_n_s_cline_in_traceback DQ 01H DUP (?)
__pyx_n_s_class DQ 01H DUP (?)
__pyx_n_u_c DQ	01H DUP (?)
__pyx_n_s_c DQ	01H DUP (?)
__pyx_n_s_base DQ 01H DUP (?)
__pyx_n_s_View_MemoryView DQ 01H DUP (?)
__pyx_n_s_ValueError DQ 01H DUP (?)
__pyx_kp_s_Unable_to_convert_item_to_object DQ 01H DUP (?)
__pyx_n_s_TypeError DQ 01H DUP (?)
__pyx_n_s_RuntimeError DQ 01H DUP (?)
__pyx_n_s_PickleError DQ 01H DUP (?)
__pyx_kp_s_Out_of_bounds_on_buffer_access_a DQ 01H DUP (?)
__pyx_n_b_O DQ	01H DUP (?)
__pyx_kp_u_Non_native_byte_order_not_suppor DQ 01H DUP (?)
__pyx_kp_s_MemoryView_of_r_object DQ 01H DUP (?)
__pyx_kp_s_MemoryView_of_r_at_0x_x DQ 01H DUP (?)
__pyx_n_s_MemoryError DQ 01H DUP (?)
__pyx_kp_s_Invalid_shape_in_axis_d_d DQ 01H DUP (?)
__pyx_kp_s_Invalid_mode_expected_c_or_fortr DQ 01H DUP (?)
__pyx_kp_s_Indirect_dimensions_not_supporte DQ 01H DUP (?)
__pyx_n_s_IndexError DQ 01H DUP (?)
__pyx_kp_s_Incompatible_checksums_s_vs_0xb0 DQ 01H DUP (?)
__pyx_n_s_ImportError DQ 01H DUP (?)
__pyx_kp_u_Format_string_allocated_too_shor_2 DQ 01H DUP (?)
__pyx_kp_u_Format_string_allocated_too_shor DQ 01H DUP (?)
__pyx_kp_s_Empty_shape_tuple_for_cython_arr DQ 01H DUP (?)
__pyx_n_s_Ellipsis DQ 01H DUP (?)
__pyx_n_s_DTYPE DQ 01H DUP (?)
__pyx_kp_s_Cannot_index_with_type_s DQ 01H DUP (?)
__pyx_kp_s_Can_only_create_a_buffer_that_is DQ 01H DUP (?)
__pyx_n_s_C DQ	01H DUP (?)
__pyx_kp_s_Buffer_view_does_not_expose_stri DQ 01H DUP (?)
__pyx_n_s_ASCII DQ 01H DUP (?)
__pyx_n_s_pyx_state DQ 01H DUP (?)
__pyx_n_s_pyx_checksum DQ 01H DUP (?)
__pyx_n_s_pyx_type DQ 01H DUP (?)
__pyx_n_s_dtype_is_object DQ 01H DUP (?)
__pyx_n_s_flags DQ 01H DUP (?)
__pyx_n_s_obj DQ 01H DUP (?)
__pyx_n_s_name DQ 01H DUP (?)
__pyx_n_s_allocate_buffer DQ 01H DUP (?)
__pyx_n_s_mode DQ 01H DUP (?)
__pyx_n_s_format DQ 01H DUP (?)
__pyx_n_s_itemsize DQ 01H DUP (?)
__pyx_n_s_shape DQ 01H DUP (?)
__pyx_n_s_NOISE DQ 01H DUP (?)
__pyx_n_s_FREQ DQ 01H DUP (?)
__pyx_n_s_TERM_HEIGHT DQ 01H DUP (?)
__pyx_n_s_SINR_TH DQ 01H DUP (?)
__pyx_n_s_RSRP_TH DQ 01H DUP (?)
__pyx_n_s_B_of_S DQ 01H DUP (?)
__pyx_n_s_B DQ	01H DUP (?)
__pyx_n_s_S DQ	01H DUP (?)
__pyx_n_s_beta DQ 01H DUP (?)
__pyx_n_s_alpha DQ 01H DUP (?)
__pyx_n_s_vv DQ	01H DUP (?)
__pyx_n_s_hv DQ	01H DUP (?)
PyArray_API DQ	01H DUP (?)
PyUFunc_API DQ	01H DUP (?)
__pyx_m	DQ	01H DUP (?)
__pyx_clineno DD 01H DUP (?)
	ALIGN	8

__Pyx_zeros DQ	08H DUP (?)
__pyx_code_cache DB 010H DUP (?)
__pyx_ptype_7cpython_4type_type DQ 01H DUP (?)
__pyx_ptype_5numpy_dtype DQ 01H DUP (?)
__pyx_ptype_5numpy_flatiter DQ 01H DUP (?)
__pyx_ptype_5numpy_broadcast DQ 01H DUP (?)
__pyx_ptype_5numpy_ndarray DQ 01H DUP (?)
__pyx_ptype_5numpy_ufunc DQ 01H DUP (?)
__pyx_array_type DQ 01H DUP (?)
__pyx_MemviewEnum_type DQ 01H DUP (?)
__pyx_memoryview_type DQ 01H DUP (?)
__pyx_memoryviewslice_type DQ 01H DUP (?)
__pyx_v_8rsrpsinr_ahv DB 0d0H DUP (?)
__pyx_v_8rsrpsinr_avv DB 0d0H DUP (?)
generic	DQ	01H DUP (?)
strided	DQ	01H DUP (?)
indirect DQ	01H DUP (?)
contiguous DQ	01H DUP (?)
indirect_contiguous DQ 01H DUP (?)
__pyx_module_is_main_rsrpsinr DD 01H DUP (?)
__pyx_methods DB 020H DUP (?)
_BSS	ENDS
;	COMDAT ??_C@_0DH@CHGFPFCL@Internal?5class?5for?5passing?5memor@
CONST	SEGMENT
??_C@_0DH@CHGFPFCL@Internal?5class?5for?5passing?5memor@ DB 'Internal cla'
	DB	'ss for passing memoryview slices to Python', 00H ; `string'
CONST	ENDS
;	COMDAT ??_C@_0BK@CCMHKJAM@rsrpsinr?4_memoryviewslice?$AA@
CONST	SEGMENT
??_C@_0BK@CCMHKJAM@rsrpsinr?4_memoryviewslice?$AA@ DB 'rsrpsinr._memoryvi'
	DB	'ewslice', 00H				; `string'
CONST	ENDS
;	COMDAT ??_C@_0BE@GJNHAHPO@rsrpsinr?4memoryview?$AA@
CONST	SEGMENT
??_C@_0BE@GJNHAHPO@rsrpsinr?4memoryview?$AA@ DB 'rsrpsinr.memoryview', 00H ; `string'
CONST	ENDS
;	COMDAT ??_C@_04IAGNFIBA@size?$AA@
CONST	SEGMENT
??_C@_04IAGNFIBA@size?$AA@ DB 'size', 00H		; `string'
CONST	ENDS
;	COMDAT ??_C@_06KGLHCPOD@nbytes?$AA@
CONST	SEGMENT
??_C@_06KGLHCPOD@nbytes?$AA@ DB 'nbytes', 00H		; `string'
CONST	ENDS
;	COMDAT ??_C@_08BFHIGMPA@itemsize?$AA@
CONST	SEGMENT
??_C@_08BFHIGMPA@itemsize?$AA@ DB 'itemsize', 00H	; `string'
CONST	ENDS
;	COMDAT ??_C@_04DMMOEENP@ndim?$AA@
CONST	SEGMENT
??_C@_04DMMOEENP@ndim?$AA@ DB 'ndim', 00H		; `string'
CONST	ENDS
;	COMDAT ??_C@_0L@ELCNMNAH@suboffsets?$AA@
CONST	SEGMENT
??_C@_0L@ELCNMNAH@suboffsets?$AA@ DB 'suboffsets', 00H	; `string'
CONST	ENDS
;	COMDAT ??_C@_07IMKHLIIB@strides?$AA@
CONST	SEGMENT
??_C@_07IMKHLIIB@strides?$AA@ DB 'strides', 00H		; `string'
CONST	ENDS
;	COMDAT ??_C@_05KFCIHKGL@shape?$AA@
CONST	SEGMENT
??_C@_05KFCIHKGL@shape?$AA@ DB 'shape', 00H		; `string'
CONST	ENDS
;	COMDAT ??_C@_04BHIIPFEC@base?$AA@
CONST	SEGMENT
??_C@_04BHIIPFEC@base?$AA@ DB 'base', 00H		; `string'
CONST	ENDS
;	COMDAT ??_C@_01GAPBHFFA@T?$AA@
CONST	SEGMENT
??_C@_01GAPBHFFA@T?$AA@ DB 'T', 00H			; `string'
CONST	ENDS
;	COMDAT ??_C@_0N@BCHOHOEO@copy_fortran?$AA@
CONST	SEGMENT
??_C@_0N@BCHOHOEO@copy_fortran?$AA@ DB 'copy_fortran', 00H ; `string'
CONST	ENDS
;	COMDAT ??_C@_04COAGEIMF@copy?$AA@
CONST	SEGMENT
??_C@_04COAGEIMF@copy?$AA@ DB 'copy', 00H		; `string'
CONST	ENDS
;	COMDAT ??_C@_0M@FBGIIHKF@is_f_contig?$AA@
CONST	SEGMENT
??_C@_0M@FBGIIHKF@is_f_contig?$AA@ DB 'is_f_contig', 00H ; `string'
CONST	ENDS
;	COMDAT ??_C@_0M@BLPPMCOK@is_c_contig?$AA@
CONST	SEGMENT
??_C@_0M@BLPPMCOK@is_c_contig?$AA@ DB 'is_c_contig', 00H ; `string'
CONST	ENDS
;	COMDAT ??_C@_0O@LDCFFKPD@rsrpsinr?4Enum?$AA@
CONST	SEGMENT
??_C@_0O@LDCFFKPD@rsrpsinr?4Enum?$AA@ DB 'rsrpsinr.Enum', 00H ; `string'
CONST	ENDS
;	COMDAT ??_C@_0P@HHBKLIDN@rsrpsinr?4array?$AA@
CONST	SEGMENT
??_C@_0P@HHBKLIDN@rsrpsinr?4array?$AA@ DB 'rsrpsinr.array', 00H ; `string'
CONST	ENDS
;	COMDAT ??_C@_07KCAJKBCG@memview?$AA@
CONST	SEGMENT
??_C@_07KCAJKBCG@memview?$AA@ DB 'memview', 00H		; `string'
CONST	ENDS
;	COMDAT ??_C@_0BE@CCNCIHLB@__setstate_cython__?$AA@
CONST	SEGMENT
??_C@_0BE@CCNCIHLB@__setstate_cython__?$AA@ DB '__setstate_cython__', 00H ; `string'
CONST	ENDS
;	COMDAT ??_C@_0BC@OLIMIKGB@__reduce_cython__?$AA@
CONST	SEGMENT
??_C@_0BC@OLIMIKGB@__reduce_cython__?$AA@ DB '__reduce_cython__', 00H ; `string'
CONST	ENDS
;	COMDAT ??_C@_0M@GIDJPAP@__getattr__?$AA@
CONST	SEGMENT
??_C@_0M@GIDJPAP@__getattr__?$AA@ DB '__getattr__', 00H	; `string'
CONST	ENDS
;	COMDAT ??_C@_0BE@OFCNINNK@__pyx_unpickle_Enum?$AA@
CONST	SEGMENT
??_C@_0BE@OFCNINNK@__pyx_unpickle_Enum?$AA@ DB '__pyx_unpickle_Enum', 00H ; `string'
CONST	ENDS
;	COMDAT ??_C@_0N@NLCAJHNH@get_coverage?$AA@
CONST	SEGMENT
??_C@_0N@NLCAJHNH@get_coverage?$AA@ DB 'get_coverage', 00H ; `string'
CONST	ENDS
;	COMDAT ??_C@_04CNCNIFFP@gain?$AA@
CONST	SEGMENT
??_C@_04CNCNIFFP@gain?$AA@ DB 'gain', 00H		; `string'
CONST	ENDS
;	COMDAT ??_C@_0BC@LEBODINL@set_antenna_hv_vv?$AA@
CONST	SEGMENT
??_C@_0BC@LEBODINL@set_antenna_hv_vv?$AA@ DB 'set_antenna_hv_vv', 00H ; `string'
CONST	ENDS
;	COMDAT ??_C@_0O@FNDOKFBP@rad_to_degree?$AA@
CONST	SEGMENT
??_C@_0O@FNDOKFBP@rad_to_degree?$AA@ DB 'rad_to_degree', 00H ; `string'
CONST	ENDS
;	COMDAT ??_C@_0O@CNCFBNEJ@degree_to_rad?$AA@
CONST	SEGMENT
??_C@_0O@CNCFBNEJ@degree_to_rad?$AA@ DB 'degree_to_rad', 00H ; `string'
CONST	ENDS
CONST	SEGMENT
__pyx_k_B DB	'B', 00H
	ORG $+2
__pyx_k_C DB	'C', 00H
	ORG $+2
__pyx_k_O DB	'O', 00H
	ORG $+2
__pyx_k_S DB	'S', 00H
	ORG $+2
__pyx_k_c DB	'c', 00H
	ORG $+2
__pyx_k_d DB	'd', 00H
	ORG $+2
__pyx_k_hv DB	'hv', 00H
	ORG $+1
__pyx_k_id DB	'id', 00H
	ORG $+1
__pyx_k_np DB	'np', 00H
	ORG $+1
__pyx_k_vv DB	'vv', 00H
	ORG $+1
__pyx_k_new DB	'__new__', 00H
__pyx_k_obj DB	'obj', 00H
__pyx_k_FREQ DB	'FREQ', 00H
	ORG $+3
__pyx_k_base DB	'base', 00H
	ORG $+3
__pyx_k_beta DB	'beta', 00H
	ORG $+7
__pyx_k_dict DB	'__dict__', 00H
	ORG $+3
__pyx_k_gain DB	'gain', 00H
	ORG $+7
__pyx_k_main DB	'__main__', 00H
	ORG $+3
__pyx_k_mode DB	'mode', 00H
	ORG $+3
__pyx_k_name DB	'name', 00H
	ORG $+3
__pyx_k_ndim DB	'ndim', 00H
	ORG $+3
__pyx_k_ones DB	'ones', 00H
	ORG $+3
__pyx_k_pack DB	'pack', 00H
	ORG $+3
__pyx_k_size DB	'size', 00H
	ORG $+3
__pyx_k_step DB	'step', 00H
	ORG $+3
__pyx_k_stop DB	'stop', 00H
	ORG $+7
__pyx_k_test DB	'__test__', 00H
	ORG $+3
__pyx_k_ASCII DB 'ASCII', 00H
	ORG $+2
__pyx_k_DTYPE DB 'DTYPE', 00H
	ORG $+2
__pyx_k_NOISE DB 'NOISE', 00H
	ORG $+2
__pyx_k_alpha DB 'alpha', 00H
	ORG $+6
__pyx_k_class DB '__class__', 00H
	ORG $+2
__pyx_k_dtype DB 'dtype', 00H
	ORG $+2
__pyx_k_error DB 'error', 00H
	ORG $+2
__pyx_k_flags DB 'flags', 00H
	ORG $+2
__pyx_k_int64 DB 'int64', 00H
	ORG $+2
__pyx_k_numpy DB 'numpy', 00H
	ORG $+2
__pyx_k_order DB 'order', 00H
	ORG $+2
__pyx_k_range DB 'range', 00H
	ORG $+2
__pyx_k_shape DB 'shape', 00H
	ORG $+2
__pyx_k_start DB 'start', 00H
	ORG $+2
__pyx_k_uint8 DB 'uint8', 00H
	ORG $+2
__pyx_k_zeros DB 'zeros', 00H
	ORG $+2
__pyx_k_B_of_S DB 'B_of_S', 00H
	ORG $+1
__pyx_k_encode DB 'encode', 00H
	ORG $+1
__pyx_k_format DB 'format', 00H
	ORG $+5
__pyx_k_import DB '__import__', 00H
	ORG $+5
__pyx_k_name_2 DB '__name__', 00H
	ORG $+3
__pyx_k_pickle DB 'pickle', 00H
	ORG $+5
__pyx_k_reduce DB '__reduce__', 00H
	ORG $+1
__pyx_k_struct DB 'struct', 00H
	ORG $+1
__pyx_k_unpack DB 'unpack', 00H
	ORG $+1
__pyx_k_update DB 'update', 00H
	ORG $+5
__pyx_k_RSRP_TH DB 'RSRP_TH', 00H
__pyx_k_SINR_TH DB 'SINR_TH', 00H
__pyx_k_float64 DB 'float64', 00H
__pyx_k_fortran DB 'fortran', 00H
__pyx_k_memview DB 'memview', 00H
__pyx_k_reshape DB 'reshape', 00H
__pyx_k_Ellipsis DB 'Ellipsis', 00H
	ORG $+7
__pyx_k_getstate DB '__getstate__', 00H
	ORG $+3
__pyx_k_itemsize DB 'itemsize', 00H
	ORG $+7
__pyx_k_pyx_type DB '__pyx_type', 00H
	ORG $+5
__pyx_k_rsrpsinr DB 'rsrpsinr', 00H
	ORG $+7
__pyx_k_setstate DB '__setstate__', 00H
	ORG $+3
__pyx_k_TypeError DB 'TypeError', 00H
	ORG $+6
__pyx_k_enumerate DB 'enumerate', 00H
	ORG $+6
__pyx_k_pyx_state DB '__pyx_state', 00H
	ORG $+4
__pyx_k_reduce_ex DB '__reduce_ex__', 00H
	ORG $+2
__pyx_k_IndexError DB 'IndexError', 00H
	ORG $+5
__pyx_k_ValueError DB 'ValueError', 00H
	ORG $+5
__pyx_k_pyx_result DB '__pyx_result', 00H
	ORG $+3
__pyx_k_pyx_vtable DB '__pyx_vtable__', 00H
	ORG $+1
__pyx_k_ImportError DB 'ImportError', 00H
	ORG $+4
__pyx_k_MemoryError DB 'MemoryError', 00H
	ORG $+4
__pyx_k_PickleError DB 'PickleError', 00H
	ORG $+4
__pyx_k_TERM_HEIGHT DB 'TERM_HEIGHT', 00H
	ORG $+4
__pyx_k_RuntimeError DB 'RuntimeError', 00H
	ORG $+3
__pyx_k_get_coverage DB 'get_coverage', 00H
	ORG $+3
__pyx_k_pyx_checksum DB '__pyx_checksum', 00H
	ORG $+1
__pyx_k_rsrpsinr_pyx DB 'rsrpsinr.pyx', 00H
	ORG $+3
__pyx_k_stringsource DB 'stringsource', 00H
	ORG $+3
__pyx_k_degree_to_rad DB 'degree_to_rad', 00H
	ORG $+2
__pyx_k_pyx_getbuffer DB '__pyx_getbuffer', 00H
__pyx_k_rad_to_degree DB 'rad_to_degree', 00H
	ORG $+2
__pyx_k_reduce_cython DB '__reduce_cython__', 00H
	ORG $+6
__pyx_k_View_MemoryView DB 'View.MemoryView', 00H
__pyx_k_allocate_buffer DB 'allocate_buffer', 00H
__pyx_k_dtype_is_object DB 'dtype_is_object', 00H
__pyx_k_pyx_PickleError DB '__pyx_PickleError', 00H
	ORG $+6
__pyx_k_setstate_cython DB '__setstate_cython__', 00H
	ORG $+4
__pyx_k_pyx_unpickle_Enum DB '__pyx_unpickle_Enum', 00H
	ORG $+4
__pyx_k_set_antenna_hv_vv DB 'set_antenna_hv_vv', 00H
	ORG $+6
__pyx_k_cline_in_traceback DB 'cline_in_traceback', 00H
	ORG $+5
__pyx_k_strided_and_direct DB '<strided and direct>', 00H
	ORG $+3
__pyx_k_strided_and_indirect DB '<strided and indirect>', 00H
	ORG $+1
__pyx_k_contiguous_and_direct DB '<contiguous and direct>', 00H
__pyx_k_MemoryView_of_r_object DB '<MemoryView of %r object>', 00H
	ORG $+6
__pyx_k_MemoryView_of_r_at_0x_x DB '<MemoryView of %r at 0x%x>', 00H
	ORG $+5
__pyx_k_contiguous_and_indirect DB '<contiguous and indirect>', 00H
	ORG $+6
__pyx_k_Cannot_index_with_type_s DB 'Cannot index with type ''%s''', 00H
	ORG $+4
__pyx_k_Invalid_shape_in_axis_d_d DB 'Invalid shape in axis %d: %d.', 00H
	ORG $+2
__pyx_k_itemsize_0_for_cython_array DB 'itemsize <= 0 for cython.array', 00H
	ORG $+1
__pyx_k_ndarray_is_not_C_contiguous DB 'ndarray is not C contiguous', 00H
	ORG $+4
__pyx_k_unable_to_allocate_array_data DB 'unable to allocate array data.', 00H
	ORG $+1
__pyx_k_strided_and_direct_or_indirect DB '<strided and direct or indirec'
	DB	't>', 00H
	ORG $+7
__pyx_k_numpy_core_multiarray_failed_to DB 'numpy.core.multiarray failed '
	DB	'to import', 00H
	ORG $+1
__pyx_k_unknown_dtype_code_in_numpy_pxd DB 'unknown dtype code in numpy.p'
	DB	'xd (%d)', 00H
	ORG $+3
__pyx_k_Buffer_view_does_not_expose_stri DB 'Buffer view does not expose '
	DB	'strides', 00H
	ORG $+4
__pyx_k_Can_only_create_a_buffer_that_is DB 'Can only create a buffer tha'
	DB	't is contiguous in memory.', 00H
	ORG $+1
__pyx_k_Empty_shape_tuple_for_cython_arr DB 'Empty shape tuple for cython'
	DB	'.array', 00H
	ORG $+5
__pyx_k_Format_string_allocated_too_shor DB 'Format string allocated too '
	DB	'short, see comment in numpy.pxd', 00H
	ORG $+4
__pyx_k_Incompatible_checksums_s_vs_0xb0 DB 'Incompatible checksums (%s v'
	DB	's 0xb068931 = (name))', 00H
	ORG $+6
__pyx_k_Indirect_dimensions_not_supporte DB 'Indirect dimensions not supp'
	DB	'orted', 00H
	ORG $+6
__pyx_k_Invalid_mode_expected_c_or_fortr DB 'Invalid mode, expected ''c'''
	DB	' or ''fortran'', got %s', 00H
__pyx_k_Non_native_byte_order_not_suppor DB 'Non-native byte order not su'
	DB	'pported', 00H
	ORG $+4
__pyx_k_Out_of_bounds_on_buffer_access_a DB 'Out of bounds on buffer acce'
	DB	'ss (axis %d)', 00H
	ORG $+7
__pyx_k_Unable_to_convert_item_to_object DB 'Unable to convert item to ob'
	DB	'ject', 00H
	ORG $+7
__pyx_k_got_differing_extents_in_dimensi DB 'got differing extents in dim'
	DB	'ension %d (got %d and %d)', 00H
	ORG $+2
__pyx_k_ndarray_is_not_Fortran_contiguou DB 'ndarray is not Fortran conti'
	DB	'guous', 00H
	ORG $+6
__pyx_k_no_default___reduce___due_to_non DB 'no default __reduce__ due to'
	DB	' non-trivial __cinit__', 00H
	ORG $+5
__pyx_k_numpy_core_umath_failed_to_impor DB 'numpy.core.umath failed to i'
	DB	'mport', 00H
	ORG $+6
__pyx_k_unable_to_allocate_shape_and_str DB 'unable to allocate shape and'
	DB	' strides.', 00H
	ORG $+2
__pyx_k_Format_string_allocated_too_shor_2 DB 'Format string allocated to'
	DB	'o short.', 00H
CONST	ENDS
;	COMDAT ??_C@_07GDNIBEMG@int64_t?$AA@
CONST	SEGMENT
??_C@_07GDNIBEMG@int64_t?$AA@ DB 'int64_t', 00H		; `string'
CONST	ENDS
;	COMDAT ??_C@_07EHMDJLEA@uint8_t?$AA@
CONST	SEGMENT
??_C@_07EHMDJLEA@uint8_t?$AA@ DB 'uint8_t', 00H		; `string'
CONST	ENDS
;	COMDAT ??_C@_07HDHLMKKB@DTYPE_t?$AA@
CONST	SEGMENT
??_C@_07HDHLMKKB@DTYPE_t?$AA@ DB 'DTYPE_t', 00H		; `string'
CONST	ENDS
;	COMDAT ??_C@_08PNEKBLED@type?4pxd?$AA@
CONST	SEGMENT
??_C@_08PNEKBLED@type?4pxd?$AA@ DB 'type.pxd', 00H	; `string'
CONST	ENDS
;	COMDAT ??_C@_0N@JDPHLOKK@stringsource?$AA@
CONST	SEGMENT
??_C@_0N@JDPHLOKK@stringsource?$AA@ DB 'stringsource', 00H ; `string'
CONST	ENDS
;	COMDAT ??_C@_0N@MKALCPGB@__init__?4pxd?$AA@
CONST	SEGMENT
??_C@_0N@MKALCPGB@__init__?4pxd?$AA@ DB '__init__.pxd', 00H ; `string'
CONST	ENDS
;	COMDAT ??_C@_0N@BLBBADDG@rsrpsinr?4pyx?$AA@
CONST	SEGMENT
??_C@_0N@BLBBADDG@rsrpsinr?4pyx?$AA@ DB 'rsrpsinr.pyx', 00H ; `string'
CONST	ENDS
_DATA	SEGMENT
__pyx_cfilenm DQ FLAT:??_C@_0L@DEABIHOI@rsrpsinr?4c?$AA@
__pyx_f	DQ	FLAT:??_C@_0N@BLBBADDG@rsrpsinr?4pyx?$AA@
	DQ	FLAT:??_C@_0N@MKALCPGB@__init__?4pxd?$AA@
	DQ	FLAT:??_C@_0N@JDPHLOKK@stringsource?$AA@
	DQ	FLAT:??_C@_08PNEKBLED@type?4pxd?$AA@
?__pyx_pyargnames@?2??__pyx_pw_8rsrpsinr_5set_antenna_hv_vv@@9@9 DQ FLAT:__pyx_n_s_hv ; `__pyx_pw_8rsrpsinr_5set_antenna_hv_vv'::`3'::__pyx_pyargnames
	DQ	FLAT:__pyx_n_s_vv
	DQ	0000000000000000H
__Pyx_minusones DQ ffffffffffffffffH
	DQ	ffffffffffffffffH
	DQ	ffffffffffffffffH
	DQ	ffffffffffffffffH
	DQ	ffffffffffffffffH
	DQ	ffffffffffffffffH
	DQ	ffffffffffffffffH
	DQ	ffffffffffffffffH
__Pyx_TypeInfo_nn___pyx_t_8rsrpsinr_DTYPE_t DQ FLAT:??_C@_07HDHLMKKB@DTYPE_t?$AA@
	DQ	0000000000000000H
	DQ	0000000000000008H
	DQ	0000000000000000H
	ORG $+56
	DD	00H
	DB	052H
	DB	00H
	ORG $+2
	DD	00H
	ORG $+4
?__pyx_pyargnames@?2??__pyx_pw_8rsrpsinr_7gain@@9@9 DQ FLAT:__pyx_n_s_alpha ; `__pyx_pw_8rsrpsinr_7gain'::`3'::__pyx_pyargnames
	DQ	FLAT:__pyx_n_s_beta
	DQ	0000000000000000H
__Pyx_TypeInfo_nn___pyx_t_5numpy_uint8_t DQ FLAT:??_C@_07EHMDJLEA@uint8_t?$AA@
	DQ	0000000000000000H
	DQ	0000000000000001H
	DQ	0000000000000000H
	ORG $+56
	DD	00H
	DB	055H
	DB	01H
	ORG $+2
	DD	00H
	ORG $+4
__pyx_tp_as_mapping_array DQ FLAT:__pyx_array___len__
	DQ	FLAT:__pyx_array___getitem__
	DQ	FLAT:__pyx_mp_ass_subscript_array
__Pyx_TypeInfo_nn___pyx_t_5numpy_int64_t DQ FLAT:??_C@_07GDNIBEMG@int64_t?$AA@
	DQ	0000000000000000H
	DQ	0000000000000008H
	DQ	0000000000000000H
	ORG $+56
	DD	00H
	DB	049H
	DB	00H
	ORG $+2
	DD	00H
	ORG $+4
__pyx_mdef_8rsrpsinr_1degree_to_rad DQ FLAT:??_C@_0O@CNCFBNEJ@degree_to_rad?$AA@
	DQ	FLAT:__pyx_pw_8rsrpsinr_1degree_to_rad
	DD	08H
	ORG $+4
	DQ	0000000000000000H
__pyx_mdef_8rsrpsinr_3rad_to_degree DQ FLAT:??_C@_0O@FNDOKFBP@rad_to_degree?$AA@
	DQ	FLAT:__pyx_pw_8rsrpsinr_3rad_to_degree
	DD	08H
	ORG $+4
	DQ	0000000000000000H
__pyx_mdef_8rsrpsinr_5set_antenna_hv_vv DQ FLAT:??_C@_0BC@LEBODINL@set_antenna_hv_vv?$AA@
	DQ	FLAT:__pyx_pw_8rsrpsinr_5set_antenna_hv_vv
	DD	03H
	ORG $+4
	DQ	0000000000000000H
__pyx_mdef_8rsrpsinr_7gain DQ FLAT:??_C@_04CNCNIFFP@gain?$AA@
	DQ	FLAT:__pyx_pw_8rsrpsinr_7gain
	DD	03H
	ORG $+4
	DQ	0000000000000000H
__pyx_mdef_8rsrpsinr_9get_coverage DQ FLAT:??_C@_0N@NLCAJHNH@get_coverage?$AA@
	DQ	FLAT:__pyx_pw_8rsrpsinr_9get_coverage
	DD	03H
	ORG $+4
	DQ	0000000000000000H
__pyx_tp_as_mapping_memoryview DQ FLAT:__pyx_memoryview___len__
	DQ	FLAT:__pyx_memoryview___getitem__
	DQ	FLAT:__pyx_mp_ass_subscript_memoryview
?__pyx_pyargnames@?2??__pyx_pw_8rsrpsinr_9get_coverage@@9@9 DQ FLAT:__pyx_n_s_S ; `__pyx_pw_8rsrpsinr_9get_coverage'::`3'::__pyx_pyargnames
	DQ	FLAT:__pyx_n_s_B
	DQ	FLAT:__pyx_n_s_B_of_S
	DQ	FLAT:__pyx_n_s_RSRP_TH
	DQ	FLAT:__pyx_n_s_SINR_TH
	DQ	FLAT:__pyx_n_s_TERM_HEIGHT
	DQ	FLAT:__pyx_n_s_FREQ
	DQ	FLAT:__pyx_n_s_NOISE
	DQ	0000000000000000H
?__pyx_pyargnames@?2??__pyx_array___cinit__@@9@9 DQ FLAT:__pyx_n_s_shape ; `__pyx_array___cinit__'::`3'::__pyx_pyargnames
	DQ	FLAT:__pyx_n_s_itemsize
	DQ	FLAT:__pyx_n_s_format
	DQ	FLAT:__pyx_n_s_mode
	DQ	FLAT:__pyx_n_s_allocate_buffer
	DQ	0000000000000000H
?__pyx_pyargnames@?2??__pyx_MemviewEnum___init__@@9@9 DQ FLAT:__pyx_n_s_name ; `__pyx_MemviewEnum___init__'::`3'::__pyx_pyargnames
	DQ	0000000000000000H
?__pyx_pyargnames@?2??__pyx_memoryview___cinit__@@9@9 DQ FLAT:__pyx_n_s_obj ; `__pyx_memoryview___cinit__'::`3'::__pyx_pyargnames
	DQ	FLAT:__pyx_n_s_flags
	DQ	FLAT:__pyx_n_s_dtype_is_object
	DQ	0000000000000000H
__pyx_mdef_15View_dot_MemoryView_1__pyx_unpickle_Enum DQ FLAT:??_C@_0BE@OFCNINNK@__pyx_unpickle_Enum?$AA@
	DQ	FLAT:__pyx_pw_15View_dot_MemoryView_1__pyx_unpickle_Enum
	DD	03H
	ORG $+4
	DQ	0000000000000000H
?__pyx_pyargnames@?2??__pyx_pw_15View_dot_MemoryView_1__pyx_unpickle_Enum@@9@9 DQ FLAT:__pyx_n_s_pyx_type ; `__pyx_pw_15View_dot_MemoryView_1__pyx_unpickle_Enum'::`3'::__pyx_pyargnames
	DQ	FLAT:__pyx_n_s_pyx_checksum
	DQ	FLAT:__pyx_n_s_pyx_state
	DQ	0000000000000000H
	ORG $+8
__pyx_methods_array DQ FLAT:??_C@_0M@GIDJPAP@__getattr__?$AA@
	DQ	FLAT:__pyx_array___getattr__
	DD	048H
	ORG $+4
	DQ	0000000000000000H
	DQ	FLAT:??_C@_0BC@OLIMIKGB@__reduce_cython__?$AA@
	DQ	FLAT:__pyx_pw___pyx_array_1__reduce_cython__
	DD	04H
	ORG $+4
	DQ	0000000000000000H
	DQ	FLAT:??_C@_0BE@CCNCIHLB@__setstate_cython__?$AA@
	DQ	FLAT:__pyx_pw___pyx_array_3__setstate_cython__
	DD	08H
	ORG $+4
	DQ	0000000000000000H
	DQ	0000000000000000H
	DQ	0000000000000000H
	DD	00H
	ORG $+4
	DQ	0000000000000000H
__pyx_getsets_array DQ FLAT:??_C@_07KCAJKBCG@memview?$AA@
	DQ	FLAT:__pyx_getprop___pyx_array_memview
	DQ	0000000000000000H
	DQ	0000000000000000H
	DQ	0000000000000000H
	DQ	0000000000000000H
	DQ	0000000000000000H
	DQ	0000000000000000H
	DQ	0000000000000000H
	DQ	0000000000000000H
__pyx_tp_as_sequence_array DQ FLAT:__pyx_array___len__
	DQ	0000000000000000H
	DQ	0000000000000000H
	DQ	FLAT:__pyx_sq_item_array
	DQ	0000000000000000H
	DQ	0000000000000000H
	DQ	0000000000000000H
	DQ	0000000000000000H
	DQ	0000000000000000H
	DQ	0000000000000000H
__pyx_tp_as_buffer_array DQ 0000000000000000H
	DQ	0000000000000000H
	DQ	0000000000000000H
	DQ	0000000000000000H
	DQ	FLAT:__pyx_array_getbuffer
	DQ	0000000000000000H
__pyx_type___pyx_array DQ 0000000000000001H
	DQ	0000000000000000H
	DQ	0000000000000000H
	DQ	FLAT:??_C@_0P@HHBKLIDN@rsrpsinr?4array?$AA@
	DQ	0000000000000070H
	DQ	0000000000000000H
	DQ	FLAT:__pyx_tp_dealloc_array
	DQ	0000000000000000H
	DQ	0000000000000000H
	DQ	0000000000000000H
	DQ	0000000000000000H
	DQ	0000000000000000H
	DQ	0000000000000000H
	DQ	FLAT:__pyx_tp_as_sequence_array
	DQ	FLAT:__pyx_tp_as_mapping_array
	DQ	0000000000000000H
	DQ	0000000000000000H
	DQ	0000000000000000H
	DQ	FLAT:__pyx_tp_getattro_array
	DQ	0000000000000000H
	DQ	FLAT:__pyx_tp_as_buffer_array
	DD	02605fbH
	ORG $+4
	DQ	0000000000000000H
	DQ	0000000000000000H
	DQ	0000000000000000H
	DQ	0000000000000000H
	DQ	0000000000000000H
	DQ	0000000000000000H
	DQ	0000000000000000H
	DQ	FLAT:__pyx_methods_array
	DQ	0000000000000000H
	DQ	FLAT:__pyx_getsets_array
	DQ	0000000000000000H
	DQ	0000000000000000H
	DQ	0000000000000000H
	DQ	0000000000000000H
	DQ	0000000000000000H
	DQ	0000000000000000H
	DQ	0000000000000000H
	DQ	FLAT:__pyx_tp_new_array
	DQ	0000000000000000H
	DQ	0000000000000000H
	DQ	0000000000000000H
	DQ	0000000000000000H
	DQ	0000000000000000H
	DQ	0000000000000000H
	DQ	0000000000000000H
	DQ	0000000000000000H
	DD	00H
	ORG $+4
	ORG $+8
__pyx_methods_Enum DQ FLAT:??_C@_0BC@OLIMIKGB@__reduce_cython__?$AA@
	DQ	FLAT:__pyx_pw___pyx_MemviewEnum_1__reduce_cython__
	DD	04H
	ORG $+4
	DQ	0000000000000000H
	DQ	FLAT:??_C@_0BE@CCNCIHLB@__setstate_cython__?$AA@
	DQ	FLAT:__pyx_pw___pyx_MemviewEnum_3__setstate_cython__
	DD	08H
	ORG $+4
	DQ	0000000000000000H
	DQ	0000000000000000H
	DQ	0000000000000000H
	DD	00H
	ORG $+4
	DQ	0000000000000000H
__pyx_type___pyx_MemviewEnum DQ 0000000000000001H
	DQ	0000000000000000H
	DQ	0000000000000000H
	DQ	FLAT:??_C@_0O@LDCFFKPD@rsrpsinr?4Enum?$AA@
	DQ	0000000000000018H
	DQ	0000000000000000H
	DQ	FLAT:__pyx_tp_dealloc_Enum
	DQ	0000000000000000H
	DQ	0000000000000000H
	DQ	0000000000000000H
	DQ	0000000000000000H
	DQ	FLAT:__pyx_MemviewEnum___repr__
	DQ	0000000000000000H
	DQ	0000000000000000H
	DQ	0000000000000000H
	DQ	0000000000000000H
	DQ	0000000000000000H
	DQ	0000000000000000H
	DQ	0000000000000000H
	DQ	0000000000000000H
	DQ	0000000000000000H
	DD	02645fbH
	ORG $+4
	DQ	0000000000000000H
	DQ	FLAT:__pyx_tp_traverse_Enum
	DQ	FLAT:__pyx_tp_clear_Enum
	DQ	0000000000000000H
	DQ	0000000000000000H
	DQ	0000000000000000H
	DQ	0000000000000000H
	DQ	FLAT:__pyx_methods_Enum
	DQ	0000000000000000H
	DQ	0000000000000000H
	DQ	0000000000000000H
	DQ	0000000000000000H
	DQ	0000000000000000H
	DQ	0000000000000000H
	DQ	0000000000000000H
	DQ	FLAT:__pyx_MemviewEnum___init__
	DQ	0000000000000000H
	DQ	FLAT:__pyx_tp_new_Enum
	DQ	0000000000000000H
	DQ	0000000000000000H
	DQ	0000000000000000H
	DQ	0000000000000000H
	DQ	0000000000000000H
	DQ	0000000000000000H
	DQ	0000000000000000H
	DQ	0000000000000000H
	DD	00H
	ORG $+4
	ORG $+8
__pyx_methods_memoryview DQ FLAT:??_C@_0M@BLPPMCOK@is_c_contig?$AA@
	DQ	FLAT:__pyx_memoryview_is_c_contig
	DD	04H
	ORG $+4
	DQ	0000000000000000H
	DQ	FLAT:??_C@_0M@FBGIIHKF@is_f_contig?$AA@
	DQ	FLAT:__pyx_memoryview_is_f_contig
	DD	04H
	ORG $+4
	DQ	0000000000000000H
	DQ	FLAT:??_C@_04COAGEIMF@copy?$AA@
	DQ	FLAT:__pyx_memoryview_copy
	DD	04H
	ORG $+4
	DQ	0000000000000000H
	DQ	FLAT:??_C@_0N@BCHOHOEO@copy_fortran?$AA@
	DQ	FLAT:__pyx_memoryview_copy_fortran
	DD	04H
	ORG $+4
	DQ	0000000000000000H
	DQ	FLAT:??_C@_0BC@OLIMIKGB@__reduce_cython__?$AA@
	DQ	FLAT:__pyx_pw___pyx_memoryview_1__reduce_cython__
	DD	04H
	ORG $+4
	DQ	0000000000000000H
	DQ	FLAT:??_C@_0BE@CCNCIHLB@__setstate_cython__?$AA@
	DQ	FLAT:__pyx_pw___pyx_memoryview_3__setstate_cython__
	DD	08H
	ORG $+4
	DQ	0000000000000000H
	DQ	0000000000000000H
	DQ	0000000000000000H
	DD	00H
	ORG $+4
	DQ	0000000000000000H
__pyx_getsets_memoryview DQ FLAT:??_C@_01GAPBHFFA@T?$AA@
	DQ	FLAT:__pyx_getprop___pyx_memoryview_T
	DQ	0000000000000000H
	DQ	0000000000000000H
	DQ	0000000000000000H
	DQ	FLAT:??_C@_04BHIIPFEC@base?$AA@
	DQ	FLAT:__pyx_getprop___pyx_memoryview_base
	DQ	0000000000000000H
	DQ	0000000000000000H
	DQ	0000000000000000H
	DQ	FLAT:??_C@_05KFCIHKGL@shape?$AA@
	DQ	FLAT:__pyx_getprop___pyx_memoryview_shape
	DQ	0000000000000000H
	DQ	0000000000000000H
	DQ	0000000000000000H
	DQ	FLAT:??_C@_07IMKHLIIB@strides?$AA@
	DQ	FLAT:__pyx_getprop___pyx_memoryview_strides
	DQ	0000000000000000H
	DQ	0000000000000000H
	DQ	0000000000000000H
	DQ	FLAT:??_C@_0L@ELCNMNAH@suboffsets?$AA@
	DQ	FLAT:__pyx_getprop___pyx_memoryview_suboffsets
	DQ	0000000000000000H
	DQ	0000000000000000H
	DQ	0000000000000000H
	DQ	FLAT:??_C@_04DMMOEENP@ndim?$AA@
	DQ	FLAT:__pyx_getprop___pyx_memoryview_ndim
	DQ	0000000000000000H
	DQ	0000000000000000H
	DQ	0000000000000000H
	DQ	FLAT:??_C@_08BFHIGMPA@itemsize?$AA@
	DQ	FLAT:__pyx_getprop___pyx_memoryview_itemsize
	DQ	0000000000000000H
	DQ	0000000000000000H
	DQ	0000000000000000H
	DQ	FLAT:??_C@_06KGLHCPOD@nbytes?$AA@
	DQ	FLAT:__pyx_getprop___pyx_memoryview_nbytes
	DQ	0000000000000000H
	DQ	0000000000000000H
	DQ	0000000000000000H
	DQ	FLAT:??_C@_04IAGNFIBA@size?$AA@
	DQ	FLAT:__pyx_getprop___pyx_memoryview_size
	DQ	0000000000000000H
	DQ	0000000000000000H
	DQ	0000000000000000H
	DQ	0000000000000000H
	DQ	0000000000000000H
	DQ	0000000000000000H
	DQ	0000000000000000H
	DQ	0000000000000000H
__pyx_tp_as_sequence_memoryview DQ FLAT:__pyx_memoryview___len__
	DQ	0000000000000000H
	DQ	0000000000000000H
	DQ	FLAT:__pyx_sq_item_memoryview
	DQ	0000000000000000H
	DQ	0000000000000000H
	DQ	0000000000000000H
	DQ	0000000000000000H
	DQ	0000000000000000H
	DQ	0000000000000000H
__pyx_tp_as_buffer_memoryview DQ 0000000000000000H
	DQ	0000000000000000H
	DQ	0000000000000000H
	DQ	0000000000000000H
	DQ	FLAT:__pyx_memoryview_getbuffer
	DQ	0000000000000000H
__pyx_type___pyx_memoryview DQ 0000000000000001H
	DQ	0000000000000000H
	DQ	0000000000000000H
	DQ	FLAT:??_C@_0BE@GJNHAHPO@rsrpsinr?4memoryview?$AA@
	DQ	00000000000000b8H
	DQ	0000000000000000H
	DQ	FLAT:__pyx_tp_dealloc_memoryview
	DQ	0000000000000000H
	DQ	0000000000000000H
	DQ	0000000000000000H
	DQ	0000000000000000H
	DQ	FLAT:__pyx_memoryview___repr__
	DQ	0000000000000000H
	DQ	FLAT:__pyx_tp_as_sequence_memoryview
	DQ	FLAT:__pyx_tp_as_mapping_memoryview
	DQ	0000000000000000H
	DQ	0000000000000000H
	DQ	FLAT:__pyx_memoryview___str__
	DQ	0000000000000000H
	DQ	0000000000000000H
	DQ	FLAT:__pyx_tp_as_buffer_memoryview
	DD	02645fbH
	ORG $+4
	DQ	0000000000000000H
	DQ	FLAT:__pyx_tp_traverse_memoryview
	DQ	FLAT:__pyx_tp_clear_memoryview
	DQ	0000000000000000H
	DQ	0000000000000000H
	DQ	0000000000000000H
	DQ	0000000000000000H
	DQ	FLAT:__pyx_methods_memoryview
	DQ	0000000000000000H
	DQ	FLAT:__pyx_getsets_memoryview
	DQ	0000000000000000H
	DQ	0000000000000000H
	DQ	0000000000000000H
	DQ	0000000000000000H
	DQ	0000000000000000H
	DQ	0000000000000000H
	DQ	0000000000000000H
	DQ	FLAT:__pyx_tp_new_memoryview
	DQ	0000000000000000H
	DQ	0000000000000000H
	DQ	0000000000000000H
	DQ	0000000000000000H
	DQ	0000000000000000H
	DQ	0000000000000000H
	DQ	0000000000000000H
	DQ	0000000000000000H
	DD	00H
	ORG $+4
	ORG $+8
__pyx_methods__memoryviewslice DQ FLAT:??_C@_0BC@OLIMIKGB@__reduce_cython__?$AA@
	DQ	FLAT:__pyx_pw___pyx_memoryviewslice_1__reduce_cython__
	DD	04H
	ORG $+4
	DQ	0000000000000000H
	DQ	FLAT:??_C@_0BE@CCNCIHLB@__setstate_cython__?$AA@
	DQ	FLAT:__pyx_pw___pyx_memoryviewslice_3__setstate_cython__
	DD	08H
	ORG $+4
	DQ	0000000000000000H
	DQ	0000000000000000H
	DQ	0000000000000000H
	DD	00H
	ORG $+4
	DQ	0000000000000000H
__pyx_getsets__memoryviewslice DQ FLAT:??_C@_04BHIIPFEC@base?$AA@
	DQ	FLAT:__pyx_getprop___pyx_memoryviewslice_base
	DQ	0000000000000000H
	DQ	0000000000000000H
	DQ	0000000000000000H
	DQ	0000000000000000H
	DQ	0000000000000000H
	DQ	0000000000000000H
	DQ	0000000000000000H
	DQ	0000000000000000H
__pyx_type___pyx_memoryviewslice DQ 0000000000000001H
	DQ	0000000000000000H
	DQ	0000000000000000H
	DQ	FLAT:??_C@_0BK@CCMHKJAM@rsrpsinr?4_memoryviewslice?$AA@
	DQ	00000000000001a0H
	DQ	0000000000000000H
	DQ	FLAT:__pyx_tp_dealloc__memoryviewslice
	DQ	0000000000000000H
	DQ	0000000000000000H
	DQ	0000000000000000H
	DQ	0000000000000000H
	DQ	0000000000000000H
	DQ	0000000000000000H
	DQ	0000000000000000H
	DQ	0000000000000000H
	DQ	0000000000000000H
	DQ	0000000000000000H
	DQ	0000000000000000H
	DQ	0000000000000000H
	DQ	0000000000000000H
	DQ	0000000000000000H
	DD	02645fbH
	ORG $+4
	DQ	FLAT:??_C@_0DH@CHGFPFCL@Internal?5class?5for?5passing?5memor@
	DQ	FLAT:__pyx_tp_traverse__memoryviewslice
	DQ	FLAT:__pyx_tp_clear__memoryviewslice
	DQ	0000000000000000H
	DQ	0000000000000000H
	DQ	0000000000000000H
	DQ	0000000000000000H
	DQ	FLAT:__pyx_methods__memoryviewslice
	DQ	0000000000000000H
	DQ	FLAT:__pyx_getsets__memoryviewslice
	DQ	0000000000000000H
	DQ	0000000000000000H
	DQ	0000000000000000H
	DQ	0000000000000000H
	DQ	0000000000000000H
	DQ	0000000000000000H
	DQ	0000000000000000H
	DQ	FLAT:__pyx_tp_new__memoryviewslice
	DQ	0000000000000000H
	DQ	0000000000000000H
	DQ	0000000000000000H
	DQ	0000000000000000H
	DQ	0000000000000000H
	DQ	0000000000000000H
	DQ	0000000000000000H
	DQ	0000000000000000H
	DD	00H
	ORG $+4
	ORG $+8
__pyx_string_tab DQ FLAT:__pyx_n_s_ASCII
	DQ	FLAT:__pyx_k_ASCII
	DQ	0000000000000006H
	DQ	0000000000000000H
	DB	00H
	DB	01H
	DB	01H
	ORG $+5
	DQ	FLAT:__pyx_n_s_B
	DQ	FLAT:__pyx_k_B
	DQ	0000000000000002H
	DQ	0000000000000000H
	DB	00H
	DB	01H
	DB	01H
	ORG $+5
	DQ	FLAT:__pyx_n_s_B_of_S
	DQ	FLAT:__pyx_k_B_of_S
	DQ	0000000000000007H
	DQ	0000000000000000H
	DB	00H
	DB	01H
	DB	01H
	ORG $+5
	DQ	FLAT:__pyx_kp_s_Buffer_view_does_not_expose_stri
	DQ	FLAT:__pyx_k_Buffer_view_does_not_expose_stri
	DQ	0000000000000024H
	DQ	0000000000000000H
	DB	00H
	DB	01H
	DB	00H
	ORG $+5
	DQ	FLAT:__pyx_n_s_C
	DQ	FLAT:__pyx_k_C
	DQ	0000000000000002H
	DQ	0000000000000000H
	DB	00H
	DB	01H
	DB	01H
	ORG $+5
	DQ	FLAT:__pyx_kp_s_Can_only_create_a_buffer_that_is
	DQ	FLAT:__pyx_k_Can_only_create_a_buffer_that_is
	DQ	0000000000000037H
	DQ	0000000000000000H
	DB	00H
	DB	01H
	DB	00H
	ORG $+5
	DQ	FLAT:__pyx_kp_s_Cannot_index_with_type_s
	DQ	FLAT:__pyx_k_Cannot_index_with_type_s
	DQ	000000000000001cH
	DQ	0000000000000000H
	DB	00H
	DB	01H
	DB	00H
	ORG $+5
	DQ	FLAT:__pyx_n_s_DTYPE
	DQ	FLAT:__pyx_k_DTYPE
	DQ	0000000000000006H
	DQ	0000000000000000H
	DB	00H
	DB	01H
	DB	01H
	ORG $+5
	DQ	FLAT:__pyx_n_s_Ellipsis
	DQ	FLAT:__pyx_k_Ellipsis
	DQ	0000000000000009H
	DQ	0000000000000000H
	DB	00H
	DB	01H
	DB	01H
	ORG $+5
	DQ	FLAT:__pyx_kp_s_Empty_shape_tuple_for_cython_arr
	DQ	FLAT:__pyx_k_Empty_shape_tuple_for_cython_arr
	DQ	0000000000000023H
	DQ	0000000000000000H
	DB	00H
	DB	01H
	DB	00H
	ORG $+5
	DQ	FLAT:__pyx_n_s_FREQ
	DQ	FLAT:__pyx_k_FREQ
	DQ	0000000000000005H
	DQ	0000000000000000H
	DB	00H
	DB	01H
	DB	01H
	ORG $+5
	DQ	FLAT:__pyx_kp_u_Format_string_allocated_too_shor
	DQ	FLAT:__pyx_k_Format_string_allocated_too_shor
	DQ	000000000000003cH
	DQ	0000000000000000H
	DB	01H
	DB	00H
	DB	00H
	ORG $+5
	DQ	FLAT:__pyx_kp_u_Format_string_allocated_too_shor_2
	DQ	FLAT:__pyx_k_Format_string_allocated_too_shor_2
	DQ	0000000000000023H
	DQ	0000000000000000H
	DB	01H
	DB	00H
	DB	00H
	ORG $+5
	DQ	FLAT:__pyx_n_s_ImportError
	DQ	FLAT:__pyx_k_ImportError
	DQ	000000000000000cH
	DQ	0000000000000000H
	DB	00H
	DB	01H
	DB	01H
	ORG $+5
	DQ	FLAT:__pyx_kp_s_Incompatible_checksums_s_vs_0xb0
	DQ	FLAT:__pyx_k_Incompatible_checksums_s_vs_0xb0
	DQ	0000000000000032H
	DQ	0000000000000000H
	DB	00H
	DB	01H
	DB	00H
	ORG $+5
	DQ	FLAT:__pyx_n_s_IndexError
	DQ	FLAT:__pyx_k_IndexError
	DQ	000000000000000bH
	DQ	0000000000000000H
	DB	00H
	DB	01H
	DB	01H
	ORG $+5
	DQ	FLAT:__pyx_kp_s_Indirect_dimensions_not_supporte
	DQ	FLAT:__pyx_k_Indirect_dimensions_not_supporte
	DQ	0000000000000022H
	DQ	0000000000000000H
	DB	00H
	DB	01H
	DB	00H
	ORG $+5
	DQ	FLAT:__pyx_kp_s_Invalid_mode_expected_c_or_fortr
	DQ	FLAT:__pyx_k_Invalid_mode_expected_c_or_fortr
	DQ	0000000000000030H
	DQ	0000000000000000H
	DB	00H
	DB	01H
	DB	00H
	ORG $+5
	DQ	FLAT:__pyx_kp_s_Invalid_shape_in_axis_d_d
	DQ	FLAT:__pyx_k_Invalid_shape_in_axis_d_d
	DQ	000000000000001eH
	DQ	0000000000000000H
	DB	00H
	DB	01H
	DB	00H
	ORG $+5
	DQ	FLAT:__pyx_n_s_MemoryError
	DQ	FLAT:__pyx_k_MemoryError
	DQ	000000000000000cH
	DQ	0000000000000000H
	DB	00H
	DB	01H
	DB	01H
	ORG $+5
	DQ	FLAT:__pyx_kp_s_MemoryView_of_r_at_0x_x
	DQ	FLAT:__pyx_k_MemoryView_of_r_at_0x_x
	DQ	000000000000001bH
	DQ	0000000000000000H
	DB	00H
	DB	01H
	DB	00H
	ORG $+5
	DQ	FLAT:__pyx_kp_s_MemoryView_of_r_object
	DQ	FLAT:__pyx_k_MemoryView_of_r_object
	DQ	000000000000001aH
	DQ	0000000000000000H
	DB	00H
	DB	01H
	DB	00H
	ORG $+5
	DQ	FLAT:__pyx_n_s_NOISE
	DQ	FLAT:__pyx_k_NOISE
	DQ	0000000000000006H
	DQ	0000000000000000H
	DB	00H
	DB	01H
	DB	01H
	ORG $+5
	DQ	FLAT:__pyx_kp_u_Non_native_byte_order_not_suppor
	DQ	FLAT:__pyx_k_Non_native_byte_order_not_suppor
	DQ	0000000000000024H
	DQ	0000000000000000H
	DB	01H
	DB	00H
	DB	00H
	ORG $+5
	DQ	FLAT:__pyx_n_b_O
	DQ	FLAT:__pyx_k_O
	DQ	0000000000000002H
	DQ	0000000000000000H
	DB	00H
	DB	00H
	DB	01H
	ORG $+5
	DQ	FLAT:__pyx_kp_s_Out_of_bounds_on_buffer_access_a
	DQ	FLAT:__pyx_k_Out_of_bounds_on_buffer_access_a
	DQ	0000000000000029H
	DQ	0000000000000000H
	DB	00H
	DB	01H
	DB	00H
	ORG $+5
	DQ	FLAT:__pyx_n_s_PickleError
	DQ	FLAT:__pyx_k_PickleError
	DQ	000000000000000cH
	DQ	0000000000000000H
	DB	00H
	DB	01H
	DB	01H
	ORG $+5
	DQ	FLAT:__pyx_n_s_RSRP_TH
	DQ	FLAT:__pyx_k_RSRP_TH
	DQ	0000000000000008H
	DQ	0000000000000000H
	DB	00H
	DB	01H
	DB	01H
	ORG $+5
	DQ	FLAT:__pyx_n_s_RuntimeError
	DQ	FLAT:__pyx_k_RuntimeError
	DQ	000000000000000dH
	DQ	0000000000000000H
	DB	00H
	DB	01H
	DB	01H
	ORG $+5
	DQ	FLAT:__pyx_n_s_S
	DQ	FLAT:__pyx_k_S
	DQ	0000000000000002H
	DQ	0000000000000000H
	DB	00H
	DB	01H
	DB	01H
	ORG $+5
	DQ	FLAT:__pyx_n_s_SINR_TH
	DQ	FLAT:__pyx_k_SINR_TH
	DQ	0000000000000008H
	DQ	0000000000000000H
	DB	00H
	DB	01H
	DB	01H
	ORG $+5
	DQ	FLAT:__pyx_n_s_TERM_HEIGHT
	DQ	FLAT:__pyx_k_TERM_HEIGHT
	DQ	000000000000000cH
	DQ	0000000000000000H
	DB	00H
	DB	01H
	DB	01H
	ORG $+5
	DQ	FLAT:__pyx_n_s_TypeError
	DQ	FLAT:__pyx_k_TypeError
	DQ	000000000000000aH
	DQ	0000000000000000H
	DB	00H
	DB	01H
	DB	01H
	ORG $+5
	DQ	FLAT:__pyx_kp_s_Unable_to_convert_item_to_object
	DQ	FLAT:__pyx_k_Unable_to_convert_item_to_object
	DQ	0000000000000021H
	DQ	0000000000000000H
	DB	00H
	DB	01H
	DB	00H
	ORG $+5
	DQ	FLAT:__pyx_n_s_ValueError
	DQ	FLAT:__pyx_k_ValueError
	DQ	000000000000000bH
	DQ	0000000000000000H
	DB	00H
	DB	01H
	DB	01H
	ORG $+5
	DQ	FLAT:__pyx_n_s_View_MemoryView
	DQ	FLAT:__pyx_k_View_MemoryView
	DQ	0000000000000010H
	DQ	0000000000000000H
	DB	00H
	DB	01H
	DB	01H
	ORG $+5
	DQ	FLAT:__pyx_n_s_allocate_buffer
	DQ	FLAT:__pyx_k_allocate_buffer
	DQ	0000000000000010H
	DQ	0000000000000000H
	DB	00H
	DB	01H
	DB	01H
	ORG $+5
	DQ	FLAT:__pyx_n_s_alpha
	DQ	FLAT:__pyx_k_alpha
	DQ	0000000000000006H
	DQ	0000000000000000H
	DB	00H
	DB	01H
	DB	01H
	ORG $+5
	DQ	FLAT:__pyx_n_s_base
	DQ	FLAT:__pyx_k_base
	DQ	0000000000000005H
	DQ	0000000000000000H
	DB	00H
	DB	01H
	DB	01H
	ORG $+5
	DQ	FLAT:__pyx_n_s_beta
	DQ	FLAT:__pyx_k_beta
	DQ	0000000000000005H
	DQ	0000000000000000H
	DB	00H
	DB	01H
	DB	01H
	ORG $+5
	DQ	FLAT:__pyx_n_s_c
	DQ	FLAT:__pyx_k_c
	DQ	0000000000000002H
	DQ	0000000000000000H
	DB	00H
	DB	01H
	DB	01H
	ORG $+5
	DQ	FLAT:__pyx_n_u_c
	DQ	FLAT:__pyx_k_c
	DQ	0000000000000002H
	DQ	0000000000000000H
	DB	01H
	DB	00H
	DB	01H
	ORG $+5
	DQ	FLAT:__pyx_n_s_class
	DQ	FLAT:__pyx_k_class
	DQ	000000000000000aH
	DQ	0000000000000000H
	DB	00H
	DB	01H
	DB	01H
	ORG $+5
	DQ	FLAT:__pyx_n_s_cline_in_traceback
	DQ	FLAT:__pyx_k_cline_in_traceback
	DQ	0000000000000013H
	DQ	0000000000000000H
	DB	00H
	DB	01H
	DB	01H
	ORG $+5
	DQ	FLAT:__pyx_kp_s_contiguous_and_direct
	DQ	FLAT:__pyx_k_contiguous_and_direct
	DQ	0000000000000018H
	DQ	0000000000000000H
	DB	00H
	DB	01H
	DB	00H
	ORG $+5
	DQ	FLAT:__pyx_kp_s_contiguous_and_indirect
	DQ	FLAT:__pyx_k_contiguous_and_indirect
	DQ	000000000000001aH
	DQ	0000000000000000H
	DB	00H
	DB	01H
	DB	00H
	ORG $+5
	DQ	FLAT:__pyx_n_s_d
	DQ	FLAT:__pyx_k_d
	DQ	0000000000000002H
	DQ	0000000000000000H
	DB	00H
	DB	01H
	DB	01H
	ORG $+5
	DQ	FLAT:__pyx_n_s_degree_to_rad
	DQ	FLAT:__pyx_k_degree_to_rad
	DQ	000000000000000eH
	DQ	0000000000000000H
	DB	00H
	DB	01H
	DB	01H
	ORG $+5
	DQ	FLAT:__pyx_n_s_dict
	DQ	FLAT:__pyx_k_dict
	DQ	0000000000000009H
	DQ	0000000000000000H
	DB	00H
	DB	01H
	DB	01H
	ORG $+5
	DQ	FLAT:__pyx_n_s_dtype
	DQ	FLAT:__pyx_k_dtype
	DQ	0000000000000006H
	DQ	0000000000000000H
	DB	00H
	DB	01H
	DB	01H
	ORG $+5
	DQ	FLAT:__pyx_n_s_dtype_is_object
	DQ	FLAT:__pyx_k_dtype_is_object
	DQ	0000000000000010H
	DQ	0000000000000000H
	DB	00H
	DB	01H
	DB	01H
	ORG $+5
	DQ	FLAT:__pyx_n_s_encode
	DQ	FLAT:__pyx_k_encode
	DQ	0000000000000007H
	DQ	0000000000000000H
	DB	00H
	DB	01H
	DB	01H
	ORG $+5
	DQ	FLAT:__pyx_n_s_enumerate
	DQ	FLAT:__pyx_k_enumerate
	DQ	000000000000000aH
	DQ	0000000000000000H
	DB	00H
	DB	01H
	DB	01H
	ORG $+5
	DQ	FLAT:__pyx_n_s_error
	DQ	FLAT:__pyx_k_error
	DQ	0000000000000006H
	DQ	0000000000000000H
	DB	00H
	DB	01H
	DB	01H
	ORG $+5
	DQ	FLAT:__pyx_n_s_flags
	DQ	FLAT:__pyx_k_flags
	DQ	0000000000000006H
	DQ	0000000000000000H
	DB	00H
	DB	01H
	DB	01H
	ORG $+5
	DQ	FLAT:__pyx_n_s_float64
	DQ	FLAT:__pyx_k_float64
	DQ	0000000000000008H
	DQ	0000000000000000H
	DB	00H
	DB	01H
	DB	01H
	ORG $+5
	DQ	FLAT:__pyx_n_s_format
	DQ	FLAT:__pyx_k_format
	DQ	0000000000000007H
	DQ	0000000000000000H
	DB	00H
	DB	01H
	DB	01H
	ORG $+5
	DQ	FLAT:__pyx_n_s_fortran
	DQ	FLAT:__pyx_k_fortran
	DQ	0000000000000008H
	DQ	0000000000000000H
	DB	00H
	DB	01H
	DB	01H
	ORG $+5
	DQ	FLAT:__pyx_n_u_fortran
	DQ	FLAT:__pyx_k_fortran
	DQ	0000000000000008H
	DQ	0000000000000000H
	DB	01H
	DB	00H
	DB	01H
	ORG $+5
	DQ	FLAT:__pyx_n_s_gain
	DQ	FLAT:__pyx_k_gain
	DQ	0000000000000005H
	DQ	0000000000000000H
	DB	00H
	DB	01H
	DB	01H
	ORG $+5
	DQ	FLAT:__pyx_n_s_get_coverage
	DQ	FLAT:__pyx_k_get_coverage
	DQ	000000000000000dH
	DQ	0000000000000000H
	DB	00H
	DB	01H
	DB	01H
	ORG $+5
	DQ	FLAT:__pyx_n_s_getstate
	DQ	FLAT:__pyx_k_getstate
	DQ	000000000000000dH
	DQ	0000000000000000H
	DB	00H
	DB	01H
	DB	01H
	ORG $+5
	DQ	FLAT:__pyx_kp_s_got_differing_extents_in_dimensi
	DQ	FLAT:__pyx_k_got_differing_extents_in_dimensi
	DQ	0000000000000036H
	DQ	0000000000000000H
	DB	00H
	DB	01H
	DB	00H
	ORG $+5
	DQ	FLAT:__pyx_n_s_hv
	DQ	FLAT:__pyx_k_hv
	DQ	0000000000000003H
	DQ	0000000000000000H
	DB	00H
	DB	01H
	DB	01H
	ORG $+5
	DQ	FLAT:__pyx_n_s_id
	DQ	FLAT:__pyx_k_id
	DQ	0000000000000003H
	DQ	0000000000000000H
	DB	00H
	DB	01H
	DB	01H
	ORG $+5
	DQ	FLAT:__pyx_n_s_import
	DQ	FLAT:__pyx_k_import
	DQ	000000000000000bH
	DQ	0000000000000000H
	DB	00H
	DB	01H
	DB	01H
	ORG $+5
	DQ	FLAT:__pyx_n_s_int64
	DQ	FLAT:__pyx_k_int64
	DQ	0000000000000006H
	DQ	0000000000000000H
	DB	00H
	DB	01H
	DB	01H
	ORG $+5
	DQ	FLAT:__pyx_n_s_itemsize
	DQ	FLAT:__pyx_k_itemsize
	DQ	0000000000000009H
	DQ	0000000000000000H
	DB	00H
	DB	01H
	DB	01H
	ORG $+5
	DQ	FLAT:__pyx_kp_s_itemsize_0_for_cython_array
	DQ	FLAT:__pyx_k_itemsize_0_for_cython_array
	DQ	000000000000001fH
	DQ	0000000000000000H
	DB	00H
	DB	01H
	DB	00H
	ORG $+5
	DQ	FLAT:__pyx_n_s_main
	DQ	FLAT:__pyx_k_main
	DQ	0000000000000009H
	DQ	0000000000000000H
	DB	00H
	DB	01H
	DB	01H
	ORG $+5
	DQ	FLAT:__pyx_n_s_memview
	DQ	FLAT:__pyx_k_memview
	DQ	0000000000000008H
	DQ	0000000000000000H
	DB	00H
	DB	01H
	DB	01H
	ORG $+5
	DQ	FLAT:__pyx_n_s_mode
	DQ	FLAT:__pyx_k_mode
	DQ	0000000000000005H
	DQ	0000000000000000H
	DB	00H
	DB	01H
	DB	01H
	ORG $+5
	DQ	FLAT:__pyx_n_s_name
	DQ	FLAT:__pyx_k_name
	DQ	0000000000000005H
	DQ	0000000000000000H
	DB	00H
	DB	01H
	DB	01H
	ORG $+5
	DQ	FLAT:__pyx_n_s_name_2
	DQ	FLAT:__pyx_k_name_2
	DQ	0000000000000009H
	DQ	0000000000000000H
	DB	00H
	DB	01H
	DB	01H
	ORG $+5
	DQ	FLAT:__pyx_kp_u_ndarray_is_not_C_contiguous
	DQ	FLAT:__pyx_k_ndarray_is_not_C_contiguous
	DQ	000000000000001cH
	DQ	0000000000000000H
	DB	01H
	DB	00H
	DB	00H
	ORG $+5
	DQ	FLAT:__pyx_kp_u_ndarray_is_not_Fortran_contiguou
	DQ	FLAT:__pyx_k_ndarray_is_not_Fortran_contiguou
	DQ	0000000000000022H
	DQ	0000000000000000H
	DB	01H
	DB	00H
	DB	00H
	ORG $+5
	DQ	FLAT:__pyx_n_s_ndim
	DQ	FLAT:__pyx_k_ndim
	DQ	0000000000000005H
	DQ	0000000000000000H
	DB	00H
	DB	01H
	DB	01H
	ORG $+5
	DQ	FLAT:__pyx_n_s_new
	DQ	FLAT:__pyx_k_new
	DQ	0000000000000008H
	DQ	0000000000000000H
	DB	00H
	DB	01H
	DB	01H
	ORG $+5
	DQ	FLAT:__pyx_kp_s_no_default___reduce___due_to_non
	DQ	FLAT:__pyx_k_no_default___reduce___due_to_non
	DQ	0000000000000033H
	DQ	0000000000000000H
	DB	00H
	DB	01H
	DB	00H
	ORG $+5
	DQ	FLAT:__pyx_n_s_np
	DQ	FLAT:__pyx_k_np
	DQ	0000000000000003H
	DQ	0000000000000000H
	DB	00H
	DB	01H
	DB	01H
	ORG $+5
	DQ	FLAT:__pyx_n_s_numpy
	DQ	FLAT:__pyx_k_numpy
	DQ	0000000000000006H
	DQ	0000000000000000H
	DB	00H
	DB	01H
	DB	01H
	ORG $+5
	DQ	FLAT:__pyx_kp_s_numpy_core_multiarray_failed_to
	DQ	FLAT:__pyx_k_numpy_core_multiarray_failed_to
	DQ	0000000000000027H
	DQ	0000000000000000H
	DB	00H
	DB	01H
	DB	00H
	ORG $+5
	DQ	FLAT:__pyx_kp_s_numpy_core_umath_failed_to_impor
	DQ	FLAT:__pyx_k_numpy_core_umath_failed_to_impor
	DQ	0000000000000022H
	DQ	0000000000000000H
	DB	00H
	DB	01H
	DB	00H
	ORG $+5
	DQ	FLAT:__pyx_n_s_obj
	DQ	FLAT:__pyx_k_obj
	DQ	0000000000000004H
	DQ	0000000000000000H
	DB	00H
	DB	01H
	DB	01H
	ORG $+5
	DQ	FLAT:__pyx_n_s_ones
	DQ	FLAT:__pyx_k_ones
	DQ	0000000000000005H
	DQ	0000000000000000H
	DB	00H
	DB	01H
	DB	01H
	ORG $+5
	DQ	FLAT:__pyx_n_s_order
	DQ	FLAT:__pyx_k_order
	DQ	0000000000000006H
	DQ	0000000000000000H
	DB	00H
	DB	01H
	DB	01H
	ORG $+5
	DQ	FLAT:__pyx_n_s_pack
	DQ	FLAT:__pyx_k_pack
	DQ	0000000000000005H
	DQ	0000000000000000H
	DB	00H
	DB	01H
	DB	01H
	ORG $+5
	DQ	FLAT:__pyx_n_s_pickle
	DQ	FLAT:__pyx_k_pickle
	DQ	0000000000000007H
	DQ	0000000000000000H
	DB	00H
	DB	01H
	DB	01H
	ORG $+5
	DQ	FLAT:__pyx_n_s_pyx_PickleError
	DQ	FLAT:__pyx_k_pyx_PickleError
	DQ	0000000000000012H
	DQ	0000000000000000H
	DB	00H
	DB	01H
	DB	01H
	ORG $+5
	DQ	FLAT:__pyx_n_s_pyx_checksum
	DQ	FLAT:__pyx_k_pyx_checksum
	DQ	000000000000000fH
	DQ	0000000000000000H
	DB	00H
	DB	01H
	DB	01H
	ORG $+5
	DQ	FLAT:__pyx_n_s_pyx_getbuffer
	DQ	FLAT:__pyx_k_pyx_getbuffer
	DQ	0000000000000010H
	DQ	0000000000000000H
	DB	00H
	DB	01H
	DB	01H
	ORG $+5
	DQ	FLAT:__pyx_n_s_pyx_result
	DQ	FLAT:__pyx_k_pyx_result
	DQ	000000000000000dH
	DQ	0000000000000000H
	DB	00H
	DB	01H
	DB	01H
	ORG $+5
	DQ	FLAT:__pyx_n_s_pyx_state
	DQ	FLAT:__pyx_k_pyx_state
	DQ	000000000000000cH
	DQ	0000000000000000H
	DB	00H
	DB	01H
	DB	01H
	ORG $+5
	DQ	FLAT:__pyx_n_s_pyx_type
	DQ	FLAT:__pyx_k_pyx_type
	DQ	000000000000000bH
	DQ	0000000000000000H
	DB	00H
	DB	01H
	DB	01H
	ORG $+5
	DQ	FLAT:__pyx_n_s_pyx_unpickle_Enum
	DQ	FLAT:__pyx_k_pyx_unpickle_Enum
	DQ	0000000000000014H
	DQ	0000000000000000H
	DB	00H
	DB	01H
	DB	01H
	ORG $+5
	DQ	FLAT:__pyx_n_s_pyx_vtable
	DQ	FLAT:__pyx_k_pyx_vtable
	DQ	000000000000000fH
	DQ	0000000000000000H
	DB	00H
	DB	01H
	DB	01H
	ORG $+5
	DQ	FLAT:__pyx_n_s_rad_to_degree
	DQ	FLAT:__pyx_k_rad_to_degree
	DQ	000000000000000eH
	DQ	0000000000000000H
	DB	00H
	DB	01H
	DB	01H
	ORG $+5
	DQ	FLAT:__pyx_n_s_range
	DQ	FLAT:__pyx_k_range
	DQ	0000000000000006H
	DQ	0000000000000000H
	DB	00H
	DB	01H
	DB	01H
	ORG $+5
	DQ	FLAT:__pyx_n_s_reduce
	DQ	FLAT:__pyx_k_reduce
	DQ	000000000000000bH
	DQ	0000000000000000H
	DB	00H
	DB	01H
	DB	01H
	ORG $+5
	DQ	FLAT:__pyx_n_s_reduce_cython
	DQ	FLAT:__pyx_k_reduce_cython
	DQ	0000000000000012H
	DQ	0000000000000000H
	DB	00H
	DB	01H
	DB	01H
	ORG $+5
	DQ	FLAT:__pyx_n_s_reduce_ex
	DQ	FLAT:__pyx_k_reduce_ex
	DQ	000000000000000eH
	DQ	0000000000000000H
	DB	00H
	DB	01H
	DB	01H
	ORG $+5
	DQ	FLAT:__pyx_n_s_reshape
	DQ	FLAT:__pyx_k_reshape
	DQ	0000000000000008H
	DQ	0000000000000000H
	DB	00H
	DB	01H
	DB	01H
	ORG $+5
	DQ	FLAT:__pyx_n_s_rsrpsinr
	DQ	FLAT:__pyx_k_rsrpsinr
	DQ	0000000000000009H
	DQ	0000000000000000H
	DB	00H
	DB	01H
	DB	01H
	ORG $+5
	DQ	FLAT:__pyx_kp_s_rsrpsinr_pyx
	DQ	FLAT:__pyx_k_rsrpsinr_pyx
	DQ	000000000000000dH
	DQ	0000000000000000H
	DB	00H
	DB	01H
	DB	00H
	ORG $+5
	DQ	FLAT:__pyx_n_s_set_antenna_hv_vv
	DQ	FLAT:__pyx_k_set_antenna_hv_vv
	DQ	0000000000000012H
	DQ	0000000000000000H
	DB	00H
	DB	01H
	DB	01H
	ORG $+5
	DQ	FLAT:__pyx_n_s_setstate
	DQ	FLAT:__pyx_k_setstate
	DQ	000000000000000dH
	DQ	0000000000000000H
	DB	00H
	DB	01H
	DB	01H
	ORG $+5
	DQ	FLAT:__pyx_n_s_setstate_cython
	DQ	FLAT:__pyx_k_setstate_cython
	DQ	0000000000000014H
	DQ	0000000000000000H
	DB	00H
	DB	01H
	DB	01H
	ORG $+5
	DQ	FLAT:__pyx_n_s_shape
	DQ	FLAT:__pyx_k_shape
	DQ	0000000000000006H
	DQ	0000000000000000H
	DB	00H
	DB	01H
	DB	01H
	ORG $+5
	DQ	FLAT:__pyx_n_s_size
	DQ	FLAT:__pyx_k_size
	DQ	0000000000000005H
	DQ	0000000000000000H
	DB	00H
	DB	01H
	DB	01H
	ORG $+5
	DQ	FLAT:__pyx_n_s_start
	DQ	FLAT:__pyx_k_start
	DQ	0000000000000006H
	DQ	0000000000000000H
	DB	00H
	DB	01H
	DB	01H
	ORG $+5
	DQ	FLAT:__pyx_n_s_step
	DQ	FLAT:__pyx_k_step
	DQ	0000000000000005H
	DQ	0000000000000000H
	DB	00H
	DB	01H
	DB	01H
	ORG $+5
	DQ	FLAT:__pyx_n_s_stop
	DQ	FLAT:__pyx_k_stop
	DQ	0000000000000005H
	DQ	0000000000000000H
	DB	00H
	DB	01H
	DB	01H
	ORG $+5
	DQ	FLAT:__pyx_kp_s_strided_and_direct
	DQ	FLAT:__pyx_k_strided_and_direct
	DQ	0000000000000015H
	DQ	0000000000000000H
	DB	00H
	DB	01H
	DB	00H
	ORG $+5
	DQ	FLAT:__pyx_kp_s_strided_and_direct_or_indirect
	DQ	FLAT:__pyx_k_strided_and_direct_or_indirect
	DQ	0000000000000021H
	DQ	0000000000000000H
	DB	00H
	DB	01H
	DB	00H
	ORG $+5
	DQ	FLAT:__pyx_kp_s_strided_and_indirect
	DQ	FLAT:__pyx_k_strided_and_indirect
	DQ	0000000000000017H
	DQ	0000000000000000H
	DB	00H
	DB	01H
	DB	00H
	ORG $+5
	DQ	FLAT:__pyx_kp_s_stringsource
	DQ	FLAT:__pyx_k_stringsource
	DQ	000000000000000dH
	DQ	0000000000000000H
	DB	00H
	DB	01H
	DB	00H
	ORG $+5
	DQ	FLAT:__pyx_n_s_struct
	DQ	FLAT:__pyx_k_struct
	DQ	0000000000000007H
	DQ	0000000000000000H
	DB	00H
	DB	01H
	DB	01H
	ORG $+5
	DQ	FLAT:__pyx_n_s_test
	DQ	FLAT:__pyx_k_test
	DQ	0000000000000009H
	DQ	0000000000000000H
	DB	00H
	DB	01H
	DB	01H
	ORG $+5
	DQ	FLAT:__pyx_n_s_uint8
	DQ	FLAT:__pyx_k_uint8
	DQ	0000000000000006H
	DQ	0000000000000000H
	DB	00H
	DB	01H
	DB	01H
	ORG $+5
	DQ	FLAT:__pyx_kp_s_unable_to_allocate_array_data
	DQ	FLAT:__pyx_k_unable_to_allocate_array_data
	DQ	000000000000001fH
	DQ	0000000000000000H
	DB	00H
	DB	01H
	DB	00H
	ORG $+5
	DQ	FLAT:__pyx_kp_s_unable_to_allocate_shape_and_str
	DQ	FLAT:__pyx_k_unable_to_allocate_shape_and_str
	DQ	0000000000000026H
	DQ	0000000000000000H
	DB	00H
	DB	01H
	DB	00H
	ORG $+5
	DQ	FLAT:__pyx_kp_u_unknown_dtype_code_in_numpy_pxd
	DQ	FLAT:__pyx_k_unknown_dtype_code_in_numpy_pxd
	DQ	0000000000000025H
	DQ	0000000000000000H
	DB	01H
	DB	00H
	DB	00H
	ORG $+5
	DQ	FLAT:__pyx_n_s_unpack
	DQ	FLAT:__pyx_k_unpack
	DQ	0000000000000007H
	DQ	0000000000000000H
	DB	00H
	DB	01H
	DB	01H
	ORG $+5
	DQ	FLAT:__pyx_n_s_update
	DQ	FLAT:__pyx_k_update
	DQ	0000000000000007H
	DQ	0000000000000000H
	DB	00H
	DB	01H
	DB	01H
	ORG $+5
	DQ	FLAT:__pyx_n_s_vv
	DQ	FLAT:__pyx_k_vv
	DQ	0000000000000003H
	DQ	0000000000000000H
	DB	00H
	DB	01H
	DB	01H
	ORG $+5
	DQ	FLAT:__pyx_n_s_zeros
	DQ	FLAT:__pyx_k_zeros
	DQ	0000000000000006H
	DQ	0000000000000000H
	DB	00H
	DB	01H
	DB	01H
	ORG $+5
	DQ	0000000000000000H
	DQ	0000000000000000H
	DQ	0000000000000000H
	DQ	0000000000000000H
	DB	00H
	DB	00H
	DB	00H
	ORG $+5
_DATA	ENDS
;	COMDAT ??_C@_0L@DEABIHOI@rsrpsinr?4c?$AA@
CONST	SEGMENT
??_C@_0L@DEABIHOI@rsrpsinr?4c?$AA@ DB 'rsrpsinr.c', 00H	; `string'
CONST	ENDS
EXTRN	__imp_PyObject_GetAttr:PROC
; Function compile flags: /Ogtpy
; File e:\2017.10.01.cmdi\2017.10.01.cmdi\rsrpsinr.c
;	COMDAT __Pyx_PyObject_GetAttrStr
_TEXT	SEGMENT
obj$ = 8
attr_name$ = 16
__Pyx_PyObject_GetAttrStr PROC				; COMDAT

; 1379 :     PyTypeObject* tp = Py_TYPE(obj);

	mov	rax, QWORD PTR [rcx+8]

; 1380 :     if (likely(tp->tp_getattro))

	mov	r8, QWORD PTR [rax+144]
	test	r8, r8
	je	SHORT $LN2@Pyx_PyObje

; 1385 : #endif
; 1386 :     return PyObject_GetAttr(obj, attr_name);
; 1387 : }

	rex_jmp	r8
$LN2@Pyx_PyObje:

; 1381 :         return tp->tp_getattro(obj, attr_name);
; 1382 : #if PY_MAJOR_VERSION < 3
; 1383 :     if (likely(tp->tp_getattr))

	mov	rax, QWORD PTR [rax+64]
	test	rax, rax
	je	SHORT $LN1@Pyx_PyObje

; 1384 :         return tp->tp_getattr(obj, PyString_AS_STRING(attr_name));

	add	rdx, 32					; 00000020H

; 1385 : #endif
; 1386 :     return PyObject_GetAttr(obj, attr_name);
; 1387 : }

	rex_jmp	rax
$LN1@Pyx_PyObje:
	rex_jmp	QWORD PTR __imp_PyObject_GetAttr
__Pyx_PyObject_GetAttrStr ENDP
_TEXT	ENDS
EXTRN	__imp_PyList_Append:PROC
; Function compile flags: /Ogtpy
;	COMDAT __Pyx_ListComp_Append
_TEXT	SEGMENT
list$ = 8
x$ = 16
__Pyx_ListComp_Append PROC				; COMDAT

; 1682 :     PyListObject* L = (PyListObject*) list;
; 1683 :     Py_ssize_t len = Py_SIZE(list);

	mov	r8, QWORD PTR [rcx+16]

; 1684 :     if (likely(L->allocated > len)) {

	cmp	QWORD PTR [rcx+32], r8
	jle	SHORT $LN1@Pyx_ListCo

; 1685 :         Py_INCREF(x);

	inc	QWORD PTR [rdx]

; 1686 :         PyList_SET_ITEM(list, len, x);

	mov	rax, QWORD PTR [rcx+24]
	mov	QWORD PTR [rax+r8*8], rdx

; 1687 :         Py_SIZE(list) = len+1;

	lea	rax, QWORD PTR [r8+1]
	mov	QWORD PTR [rcx+16], rax

; 1688 :         return 0;

	xor	eax, eax

; 1689 :     }
; 1690 :     return PyList_Append(list, x);
; 1691 : }

	ret	0
$LN1@Pyx_ListCo:
	rex_jmp	QWORD PTR __imp_PyList_Append
__Pyx_ListComp_Append ENDP
_TEXT	ENDS
EXTRN	__imp__PyList_Extend:PROC
;	COMDAT pdata
pdata	SEGMENT
$pdata$__Pyx_PyList_Extend DD imagerel __Pyx_PyList_Extend
	DD	imagerel __Pyx_PyList_Extend+46
	DD	imagerel $unwind$__Pyx_PyList_Extend
pdata	ENDS
;	COMDAT xdata
xdata	SEGMENT
$unwind$__Pyx_PyList_Extend DD 010401H
	DD	04204H
; Function compile flags: /Ogtpy
xdata	ENDS
;	COMDAT __Pyx_PyList_Extend
_TEXT	SEGMENT
L$ = 48
v$ = 56
__Pyx_PyList_Extend PROC				; COMDAT

; 1705 : static CYTHON_INLINE int __Pyx_PyList_Extend(PyObject* L, PyObject* v) {

	sub	rsp, 40					; 00000028H

; 1706 : #if CYTHON_COMPILING_IN_CPYTHON
; 1707 :     PyObject* none = _PyList_Extend((PyListObject*)L, v);

	call	QWORD PTR __imp__PyList_Extend
	mov	rcx, rax

; 1708 :     if (unlikely(!none))

	test	rax, rax
	jne	SHORT $LN5@Pyx_PyList

; 1709 :         return -1;

	or	eax, -1

; 1712 : #else
; 1713 :     return PyList_SetSlice(L, PY_SSIZE_T_MAX, PY_SSIZE_T_MAX, v);
; 1714 : #endif
; 1715 : }

	add	rsp, 40					; 00000028H
	ret	0
$LN5@Pyx_PyList:

; 1710 :     Py_DECREF(none);

	add	QWORD PTR [rax], -1
	jne	SHORT $LN4@Pyx_PyList
	mov	rax, QWORD PTR [rax+8]
	call	QWORD PTR [rax+48]
$LN4@Pyx_PyList:

; 1711 :     return 0;

	xor	eax, eax

; 1712 : #else
; 1713 :     return PyList_SetSlice(L, PY_SSIZE_T_MAX, PY_SSIZE_T_MAX, v);
; 1714 : #endif
; 1715 : }

	add	rsp, 40					; 00000028H
	ret	0
__Pyx_PyList_Extend ENDP
; Function compile flags: /Ogtpy
_TEXT	ENDS
;	COMDAT __Pyx_PyList_Append
_TEXT	SEGMENT
list$ = 8
x$ = 16
__Pyx_PyList_Append PROC				; COMDAT

; 1720 :     PyListObject* L = (PyListObject*) list;
; 1721 :     Py_ssize_t len = Py_SIZE(list);
; 1722 :     if (likely(L->allocated > len) & likely(len > (L->allocated >> 1))) {

	mov	r9, QWORD PTR [rcx+32]
	mov	r11, QWORD PTR [rcx+16]
	xor	r10d, r10d
	mov	r8d, r10d
	mov	rax, r9
	sar	rax, 1
	cmp	r11, rax
	setg	r8b
	cmp	r9, r11
	setg	r10b
	test	r8d, r10d
	je	SHORT $LN1@Pyx_PyList@2

; 1723 :         Py_INCREF(x);

	inc	QWORD PTR [rdx]

; 1724 :         PyList_SET_ITEM(list, len, x);

	mov	rax, QWORD PTR [rcx+24]
	mov	QWORD PTR [rax+r11*8], rdx

; 1725 :         Py_SIZE(list) = len+1;

	lea	rax, QWORD PTR [r11+1]
	mov	QWORD PTR [rcx+16], rax

; 1726 :         return 0;

	xor	eax, eax

; 1727 :     }
; 1728 :     return PyList_Append(list, x);
; 1729 : }

	ret	0
$LN1@Pyx_PyList@2:
	rex_jmp	QWORD PTR __imp_PyList_Append
__Pyx_PyList_Append ENDP
_TEXT	ENDS
PUBLIC	__real@3fe6666666666666
PUBLIC	__real@3fe999999999999a
PUBLIC	__real@3ff199999999999a
PUBLIC	__real@3ff8f5c28f5c28f6
PUBLIC	__real@4047266666666666
PUBLIC	__real@401a333333333333
PUBLIC	__real@4040f33333333333
PUBLIC	__real@402ba3d70a3d70a4
PUBLIC	__real@4046733333333333
PUBLIC	__real@4008000000000000
EXTRN	_fltused:DWORD
EXTRN	log10:PROC
;	COMDAT pdata
pdata	SEGMENT
$pdata$__pyx_f_8rsrpsinr_loss DD imagerel __pyx_f_8rsrpsinr_loss
	DD	imagerel __pyx_f_8rsrpsinr_loss+266
	DD	imagerel $unwind$__pyx_f_8rsrpsinr_loss
pdata	ENDS
;	COMDAT xdata
xdata	SEGMENT
$unwind$__pyx_f_8rsrpsinr_loss DD 0b2c01H
	DD	02a82cH
	DD	039826H
	DD	048820H
	DD	057816H
	DD	066811H
	DD	0e204H
xdata	ENDS
;	COMDAT __real@3fe6666666666666
CONST	SEGMENT
__real@3fe6666666666666 DQ 03fe6666666666666r	; 0.7
CONST	ENDS
;	COMDAT __real@3fe999999999999a
CONST	SEGMENT
__real@3fe999999999999a DQ 03fe999999999999ar	; 0.8
CONST	ENDS
;	COMDAT __real@3ff199999999999a
CONST	SEGMENT
__real@3ff199999999999a DQ 03ff199999999999ar	; 1.1
CONST	ENDS
;	COMDAT __real@3ff8f5c28f5c28f6
CONST	SEGMENT
__real@3ff8f5c28f5c28f6 DQ 03ff8f5c28f5c28f6r	; 1.56
CONST	ENDS
;	COMDAT __real@4047266666666666
CONST	SEGMENT
__real@4047266666666666 DQ 04047266666666666r	; 46.3
CONST	ENDS
;	COMDAT __real@401a333333333333
CONST	SEGMENT
__real@401a333333333333 DQ 0401a333333333333r	; 6.55
CONST	ENDS
;	COMDAT __real@4040f33333333333
CONST	SEGMENT
__real@4040f33333333333 DQ 04040f33333333333r	; 33.9
CONST	ENDS
;	COMDAT __real@402ba3d70a3d70a4
CONST	SEGMENT
__real@402ba3d70a3d70a4 DQ 0402ba3d70a3d70a4r	; 13.82
CONST	ENDS
;	COMDAT __real@4046733333333333
CONST	SEGMENT
__real@4046733333333333 DQ 04046733333333333r	; 44.9
CONST	ENDS
;	COMDAT __real@4008000000000000
CONST	SEGMENT
__real@4008000000000000 DQ 04008000000000000r	; 3
; Function compile flags: /Ogtpy
CONST	ENDS
;	COMDAT __pyx_f_8rsrpsinr_loss
_TEXT	SEGMENT
__pyx_v_d$ = 128
__pyx_v_hB$ = 136
__pyx_v_hR$ = 144
__pyx_v_f$ = 152
__pyx_optional_args$ = 160
__pyx_f_8rsrpsinr_loss PROC				; COMDAT

; 3207 : static CYTHON_INLINE double __pyx_f_8rsrpsinr_loss(double __pyx_v_d, double __pyx_v_hB, double __pyx_v_hR, double __pyx_v_f, struct __pyx_opt_args_8rsrpsinr_loss *__pyx_optional_args) {

	sub	rsp, 120				; 00000078H

; 3208 :   double __pyx_v_C = ((double)3.0);
; 3209 :   double __pyx_v_a;
; 3210 :   double __pyx_v_L;
; 3211 :   double __pyx_r;
; 3212 :   __Pyx_RefNannyDeclarations
; 3213 :   __Pyx_RefNannySetupContext("loss", 0);
; 3214 :   if (__pyx_optional_args) {

	mov	rax, QWORD PTR __pyx_optional_args$[rsp]
	movaps	XMMWORD PTR [rsp+96], xmm6
	movaps	XMMWORD PTR [rsp+80], xmm7
	movapd	xmm6, xmm1
	movaps	XMMWORD PTR [rsp+64], xmm8
	movaps	XMMWORD PTR [rsp+48], xmm9
	movaps	XMMWORD PTR [rsp+32], xmm10
	movsdx	xmm8, QWORD PTR __real@4008000000000000
	movapd	xmm9, xmm2
	movapd	xmm10, xmm0
	test	rax, rax
	je	SHORT $LN1@pyx_f_8rsr

; 3215 :     if (__pyx_optional_args->__pyx_n > 0) {

	cmp	DWORD PTR [rax], 0
	jle	SHORT $LN1@pyx_f_8rsr

; 3216 :       __pyx_v_C = __pyx_optional_args->C;

	movsdx	xmm8, QWORD PTR [rax+8]
$LN1@pyx_f_8rsr:

; 3217 :     }
; 3218 :   }
; 3219 : 
; 3220 :   /* "rsrpsinr.pyx":98
; 3221 :  *     @param C: C=3 for metropolitan areas
; 3222 :  *     """
; 3223 :  *     cdef double a = (1.1 * log10(f) - 0.7 ) * hR - (1.56 * log10(f) - 0.8)             # <<<<<<<<<<<<<<
; 3224 :  *     cdef double L = 46.3 + 33.9*log10(f) - 13.82*log10(hB) - a + (44.9-6.55*log10(hB))*log10(d) + C
; 3225 :  *     return L
; 3226 :  */
; 3227 :   __pyx_v_a = ((((1.1 * log10(__pyx_v_f)) - 0.7) * __pyx_v_hR) - ((1.56 * log10(__pyx_v_f)) - 0.8));
; 3228 : 
; 3229 :   /* "rsrpsinr.pyx":99
; 3230 :  *     """
; 3231 :  *     cdef double a = (1.1 * log10(f) - 0.7 ) * hR - (1.56 * log10(f) - 0.8)
; 3232 :  *     cdef double L = 46.3 + 33.9*log10(f) - 13.82*log10(hB) - a + (44.9-6.55*log10(hB))*log10(d) + C             # <<<<<<<<<<<<<<
; 3233 :  *     return L
; 3234 :  * 
; 3235 :  */
; 3236 :   __pyx_v_L = (((((46.3 + (33.9 * log10(__pyx_v_f))) - (13.82 * log10(__pyx_v_hB))) - __pyx_v_a) + ((44.9 - (6.55 * log10(__pyx_v_hB))) * log10(__pyx_v_d))) + __pyx_v_C);

	movapd	xmm0, xmm3
$__pyx_L0$14730:
	call	log10
	movapd	xmm7, xmm0
	movapd	xmm0, xmm6
	call	log10
	movapd	xmm6, xmm0
	movapd	xmm0, xmm10
	call	log10
	movsdx	xmm1, QWORD PTR __real@4046733333333333

; 3237 : 
; 3238 :   /* "rsrpsinr.pyx":100
; 3239 :  *     cdef double a = (1.1 * log10(f) - 0.7 ) * hR - (1.56 * log10(f) - 0.8)
; 3240 :  *     cdef double L = 46.3 + 33.9*log10(f) - 13.82*log10(hB) - a + (44.9-6.55*log10(hB))*log10(d) + C
; 3241 :  *     return L             # <<<<<<<<<<<<<<
; 3242 :  * 
; 3243 :  * # 10*log10(x) = 10*lg(x)/lg(10) = lg(x)*10/lg(10)
; 3244 :  */
; 3245 :   __pyx_r = __pyx_v_L;
; 3246 :   goto __pyx_L0;
; 3247 : 
; 3248 :   /* "rsrpsinr.pyx":91
; 3249 :  *     return antenna_h_rad(alpha) - C1 - C2
; 3250 :  * 
; 3251 :  * cdef inline double loss(double d, double hB, double hR, double f, double C=3):             # <<<<<<<<<<<<<<
; 3252 :  *     """
; 3253 :  *     @param d: km
; 3254 :  */
; 3255 : 
; 3256 :   /* function exit code */
; 3257 :   __pyx_L0:;
; 3258 :   __Pyx_RefNannyFinishContext();
; 3259 :   return __pyx_r;
; 3260 : }

	movaps	xmm10, XMMWORD PTR [rsp+32]
	movapd	xmm3, xmm7
	movapd	xmm2, xmm6
	mulsd	xmm6, QWORD PTR __real@402ba3d70a3d70a4
	mulsd	xmm3, QWORD PTR __real@4040f33333333333
	mulsd	xmm2, QWORD PTR __real@401a333333333333
	addsd	xmm3, QWORD PTR __real@4047266666666666
	subsd	xmm1, xmm2
	mulsd	xmm0, xmm1
	movapd	xmm1, xmm7
	mulsd	xmm7, QWORD PTR __real@3ff8f5c28f5c28f6
	subsd	xmm3, xmm6
	movaps	xmm6, XMMWORD PTR [rsp+96]
	mulsd	xmm1, QWORD PTR __real@3ff199999999999a
	subsd	xmm7, QWORD PTR __real@3fe999999999999a
	subsd	xmm1, QWORD PTR __real@3fe6666666666666
	mulsd	xmm1, xmm9
	movaps	xmm9, XMMWORD PTR [rsp+48]
	subsd	xmm1, xmm7
	movaps	xmm7, XMMWORD PTR [rsp+80]
	subsd	xmm3, xmm1
	addsd	xmm0, xmm3
	addsd	xmm0, xmm8
	movaps	xmm8, XMMWORD PTR [rsp+64]
	add	rsp, 120				; 00000078H
	ret	0
__pyx_f_8rsrpsinr_loss ENDP
_TEXT	ENDS
EXTRN	__imp_PyObject_Free:PROC
;	COMDAT pdata
pdata	SEGMENT
$pdata$__pyx_pf_5numpy_7ndarray_2__releasebuffer__ DD imagerel __pyx_pf_5numpy_7ndarray_2__releasebuffer__
	DD	imagerel __pyx_pf_5numpy_7ndarray_2__releasebuffer__+30
	DD	imagerel $unwind$__pyx_pf_5numpy_7ndarray_2__releasebuffer__
pdata	ENDS
;	COMDAT xdata
xdata	SEGMENT
$unwind$__pyx_pf_5numpy_7ndarray_2__releasebuffer__ DD 010401H
	DD	04204H
; Function compile flags: /Ogtpy
xdata	ENDS
;	COMDAT __pyx_pf_5numpy_7ndarray_2__releasebuffer__
_TEXT	SEGMENT
__pyx_v_self$ = 48
__pyx_v_info$ = 56
__pyx_pf_5numpy_7ndarray_2__releasebuffer__ PROC	; COMDAT

; 6167 : static void __pyx_pf_5numpy_7ndarray_2__releasebuffer__(PyArrayObject *__pyx_v_self, Py_buffer *__pyx_v_info) {

	sub	rsp, 40					; 00000028H

; 6168 :   __Pyx_RefNannyDeclarations
; 6169 :   int __pyx_t_1;
; 6170 :   __Pyx_RefNannySetupContext("__releasebuffer__", 0);
; 6171 : 
; 6172 :   /* "C:/Python27/lib/site-packages/Cython/Includes/numpy/__init__.pxd":308
; 6173 :  * 
; 6174 :  *         def __releasebuffer__(ndarray self, Py_buffer* info):
; 6175 :  *             if PyArray_HASFIELDS(self):             # <<<<<<<<<<<<<<
; 6176 :  *                 PyObject_Free(info.format)
; 6177 :  *             if sizeof(npy_intp) != sizeof(Py_ssize_t):
; 6178 :  */
; 6179 :   __pyx_t_1 = (PyArray_HASFIELDS(__pyx_v_self) != 0);

	mov	rax, QWORD PTR [rcx+56]
	cmp	QWORD PTR [rax+56], 0

; 6180 :   if (__pyx_t_1) {

	je	SHORT $LN2@pyx_pf_5nu

; 6181 : 
; 6182 :     /* "C:/Python27/lib/site-packages/Cython/Includes/numpy/__init__.pxd":309
; 6183 :  *         def __releasebuffer__(ndarray self, Py_buffer* info):
; 6184 :  *             if PyArray_HASFIELDS(self):
; 6185 :  *                 PyObject_Free(info.format)             # <<<<<<<<<<<<<<
; 6186 :  *             if sizeof(npy_intp) != sizeof(Py_ssize_t):
; 6187 :  *                 PyObject_Free(info.strides)
; 6188 :  */
; 6189 :     PyObject_Free(__pyx_v_info->format);

	mov	rcx, QWORD PTR [rdx+40]
	call	QWORD PTR __imp_PyObject_Free
$LN2@pyx_pf_5nu:

; 6190 : 
; 6191 :     /* "C:/Python27/lib/site-packages/Cython/Includes/numpy/__init__.pxd":308
; 6192 :  * 
; 6193 :  *         def __releasebuffer__(ndarray self, Py_buffer* info):
; 6194 :  *             if PyArray_HASFIELDS(self):             # <<<<<<<<<<<<<<
; 6195 :  *                 PyObject_Free(info.format)
; 6196 :  *             if sizeof(npy_intp) != sizeof(Py_ssize_t):
; 6197 :  */
; 6198 :   }
; 6199 : 
; 6200 :   /* "C:/Python27/lib/site-packages/Cython/Includes/numpy/__init__.pxd":310
; 6201 :  *             if PyArray_HASFIELDS(self):
; 6202 :  *                 PyObject_Free(info.format)
; 6203 :  *             if sizeof(npy_intp) != sizeof(Py_ssize_t):             # <<<<<<<<<<<<<<
; 6204 :  *                 PyObject_Free(info.strides)
; 6205 :  *                 # info.shape was stored after info.strides in the same block
; 6206 :  */
; 6207 :   __pyx_t_1 = (((sizeof(npy_intp)) != (sizeof(Py_ssize_t))) != 0);
; 6208 :   if (__pyx_t_1) {
; 6209 : 
; 6210 :     /* "C:/Python27/lib/site-packages/Cython/Includes/numpy/__init__.pxd":311
; 6211 :  *                 PyObject_Free(info.format)
; 6212 :  *             if sizeof(npy_intp) != sizeof(Py_ssize_t):
; 6213 :  *                 PyObject_Free(info.strides)             # <<<<<<<<<<<<<<
; 6214 :  *                 # info.shape was stored after info.strides in the same block
; 6215 :  * 
; 6216 :  */
; 6217 :     PyObject_Free(__pyx_v_info->strides);
; 6218 : 
; 6219 :     /* "C:/Python27/lib/site-packages/Cython/Includes/numpy/__init__.pxd":310
; 6220 :  *             if PyArray_HASFIELDS(self):
; 6221 :  *                 PyObject_Free(info.format)
; 6222 :  *             if sizeof(npy_intp) != sizeof(Py_ssize_t):             # <<<<<<<<<<<<<<
; 6223 :  *                 PyObject_Free(info.strides)
; 6224 :  *                 # info.shape was stored after info.strides in the same block
; 6225 :  */
; 6226 :   }
; 6227 : 
; 6228 :   /* "C:/Python27/lib/site-packages/Cython/Includes/numpy/__init__.pxd":307
; 6229 :  *                 f[0] = c'\0' # Terminate format string
; 6230 :  * 
; 6231 :  *         def __releasebuffer__(ndarray self, Py_buffer* info):             # <<<<<<<<<<<<<<
; 6232 :  *             if PyArray_HASFIELDS(self):
; 6233 :  *                 PyObject_Free(info.format)
; 6234 :  */
; 6235 : 
; 6236 :   /* function exit code */
; 6237 :   __Pyx_RefNannyFinishContext();
; 6238 : }

	add	rsp, 40					; 00000028H
	ret	0
__pyx_pf_5numpy_7ndarray_2__releasebuffer__ ENDP
; Function compile flags: /Ogtpy
_TEXT	ENDS
;	COMDAT __pyx_array___pyx_pf_15View_dot_MemoryView_5array_6__len__
_TEXT	SEGMENT
__pyx_v_self$ = 8
__pyx_array___pyx_pf_15View_dot_MemoryView_5array_6__len__ PROC ; COMDAT

; 9191 :   Py_ssize_t __pyx_r;
; 9192 :   __Pyx_RefNannyDeclarations
; 9193 :   __Pyx_RefNannySetupContext("__len__", 0);
; 9194 : 
; 9195 :   /* "View.MemoryView":229
; 9196 :  * 
; 9197 :  *     def __len__(self):
; 9198 :  *         return self._shape[0]             # <<<<<<<<<<<<<<
; 9199 :  * 
; 9200 :  *     def __getattr__(self, attr):
; 9201 :  */
; 9202 :   __pyx_r = (__pyx_v_self->_shape[0]);

	mov	rax, QWORD PTR [rcx+56]
$__pyx_L0$19871:

; 9203 :   goto __pyx_L0;
; 9204 : 
; 9205 :   /* "View.MemoryView":228
; 9206 :  *         return  memoryview(self, flags, self.dtype_is_object)
; 9207 :  * 
; 9208 :  *     def __len__(self):             # <<<<<<<<<<<<<<
; 9209 :  *         return self._shape[0]
; 9210 :  * 
; 9211 :  */
; 9212 : 
; 9213 :   /* function exit code */
; 9214 :   __pyx_L0:;
; 9215 :   __Pyx_RefNannyFinishContext();
; 9216 :   return __pyx_r;

	mov	rax, QWORD PTR [rax]

; 9217 : }

	ret	0
__pyx_array___pyx_pf_15View_dot_MemoryView_5array_6__len__ ENDP
_TEXT	ENDS
;	COMDAT pdata
pdata	SEGMENT
$pdata$__pyx_MemviewEnum___pyx_pf_15View_dot_MemoryView_4Enum___init__ DD imagerel __pyx_MemviewEnum___pyx_pf_15View_dot_MemoryView_4Enum___init__
	DD	imagerel __pyx_MemviewEnum___pyx_pf_15View_dot_MemoryView_4Enum___init__+77
	DD	imagerel $unwind$__pyx_MemviewEnum___pyx_pf_15View_dot_MemoryView_4Enum___init__
pdata	ENDS
;	COMDAT xdata
xdata	SEGMENT
$unwind$__pyx_MemviewEnum___pyx_pf_15View_dot_MemoryView_4Enum___init__ DD 040a01H
	DD	06340aH
	DD	07006320aH
; Function compile flags: /Ogtpy
xdata	ENDS
;	COMDAT __pyx_MemviewEnum___pyx_pf_15View_dot_MemoryView_4Enum___init__
_TEXT	SEGMENT
__pyx_v_self$ = 48
__pyx_v_name$ = 56
__pyx_MemviewEnum___pyx_pf_15View_dot_MemoryView_4Enum___init__ PROC ; COMDAT

; 9745 : static int __pyx_MemviewEnum___pyx_pf_15View_dot_MemoryView_4Enum___init__(struct __pyx_MemviewEnum_obj *__pyx_v_self, PyObject *__pyx_v_name) {

	mov	QWORD PTR [rsp+8], rbx
	push	rdi
	sub	rsp, 32					; 00000020H

; 9746 :   int __pyx_r;
; 9747 :   __Pyx_RefNannyDeclarations
; 9748 :   __Pyx_RefNannySetupContext("__init__", 0);
; 9749 : 
; 9750 :   /* "View.MemoryView":280
; 9751 :  *     cdef object name
; 9752 :  *     def __init__(self, name):
; 9753 :  *         self.name = name             # <<<<<<<<<<<<<<
; 9754 :  *     def __repr__(self):
; 9755 :  *         return self.name
; 9756 :  */
; 9757 :   __Pyx_INCREF(__pyx_v_name);

	inc	QWORD PTR [rdx]

; 9758 :   __Pyx_GIVEREF(__pyx_v_name);
; 9759 :   __Pyx_GOTREF(__pyx_v_self->name);
; 9760 :   __Pyx_DECREF(__pyx_v_self->name);

	mov	rax, QWORD PTR [rcx+16]
	mov	rdi, rcx
	dec	QWORD PTR [rax]
	mov	rcx, QWORD PTR [rcx+16]
	mov	rbx, rdx
	cmp	QWORD PTR [rcx], 0
	jne	SHORT $LN8@pyx_Memvie
	mov	rax, QWORD PTR [rcx+8]
	call	QWORD PTR [rax+48]

; 9761 :   __pyx_v_self->name = __pyx_v_name;

	mov	QWORD PTR [rdi+16], rbx

; 9762 : 
; 9763 :   /* "View.MemoryView":279
; 9764 :  * cdef class Enum(object):
; 9765 :  *     cdef object name
; 9766 :  *     def __init__(self, name):             # <<<<<<<<<<<<<<
; 9767 :  *         self.name = name
; 9768 :  *     def __repr__(self):
; 9769 :  */
; 9770 : 
; 9771 :   /* function exit code */
; 9772 :   __pyx_r = 0;
; 9773 :   __Pyx_RefNannyFinishContext();
; 9774 :   return __pyx_r;

	xor	eax, eax

; 9775 : }

	mov	rbx, QWORD PTR [rsp+48]
	add	rsp, 32					; 00000020H
	pop	rdi
	ret	0
$LN8@pyx_Memvie:
	mov	rbx, QWORD PTR [rsp+48]
	mov	QWORD PTR [rdi+16], rdx
	xor	eax, eax
	add	rsp, 32					; 00000020H
	pop	rdi
	ret	0
__pyx_MemviewEnum___pyx_pf_15View_dot_MemoryView_4Enum___init__ ENDP
; Function compile flags: /Ogtpy
_TEXT	ENDS
;	COMDAT __pyx_MemviewEnum___pyx_pf_15View_dot_MemoryView_4Enum_2__repr__
_TEXT	SEGMENT
__pyx_v_self$ = 8
__pyx_MemviewEnum___pyx_pf_15View_dot_MemoryView_4Enum_2__repr__ PROC ; COMDAT

; 9799 :   PyObject *__pyx_r = NULL;
; 9800 :   __Pyx_RefNannyDeclarations
; 9801 :   __Pyx_RefNannySetupContext("__repr__", 0);
; 9802 : 
; 9803 :   /* "View.MemoryView":282
; 9804 :  *         self.name = name
; 9805 :  *     def __repr__(self):
; 9806 :  *         return self.name             # <<<<<<<<<<<<<<
; 9807 :  * 
; 9808 :  * cdef generic = Enum("<strided and direct or indirect>")
; 9809 :  */
; 9810 :   __Pyx_XDECREF(__pyx_r);
; 9811 :   __Pyx_INCREF(__pyx_v_self->name);

	mov	rax, QWORD PTR [rcx+16]
$__pyx_L0$20509:
	inc	QWORD PTR [rax]

; 9812 :   __pyx_r = __pyx_v_self->name;
; 9813 :   goto __pyx_L0;
; 9814 : 
; 9815 :   /* "View.MemoryView":281
; 9816 :  *     def __init__(self, name):
; 9817 :  *         self.name = name
; 9818 :  *     def __repr__(self):             # <<<<<<<<<<<<<<
; 9819 :  *         return self.name
; 9820 :  * 
; 9821 :  */
; 9822 : 
; 9823 :   /* function exit code */
; 9824 :   __pyx_L0:;
; 9825 :   __Pyx_XGIVEREF(__pyx_r);
; 9826 :   __Pyx_RefNannyFinishContext();
; 9827 :   return __pyx_r;

	mov	rax, QWORD PTR [rcx+16]

; 9828 : }

	ret	0
__pyx_MemviewEnum___pyx_pf_15View_dot_MemoryView_4Enum_2__repr__ ENDP
; Function compile flags: /Ogtpy
_TEXT	ENDS
;	COMDAT __pyx_align_pointer
_TEXT	SEGMENT
__pyx_v_memory$ = 8
__pyx_v_alignment$ = 16
__pyx_align_pointer PROC				; COMDAT

; 10125: static void *__pyx_align_pointer(void *__pyx_v_memory, size_t __pyx_v_alignment) {

	mov	r8, rdx

; 10126:   Py_intptr_t __pyx_v_aligned_p;
; 10127:   size_t __pyx_v_offset;
; 10128:   void *__pyx_r;
; 10129:   int __pyx_t_1;
; 10130: 
; 10131:   /* "View.MemoryView":298
; 10132:  * cdef void *align_pointer(void *memory, size_t alignment) nogil:
; 10133:  *     "Align pointer memory on a given boundary"
; 10134:  *     cdef Py_intptr_t aligned_p = <Py_intptr_t> memory             # <<<<<<<<<<<<<<
; 10135:  *     cdef size_t offset
; 10136:  * 
; 10137:  */
; 10138:   __pyx_v_aligned_p = ((Py_intptr_t)__pyx_v_memory);
; 10139: 
; 10140:   /* "View.MemoryView":302
; 10141:  * 
; 10142:  *     with cython.cdivision(True):
; 10143:  *         offset = aligned_p % alignment             # <<<<<<<<<<<<<<
; 10144:  * 
; 10145:  *     if offset > 0:
; 10146:  */
; 10147:   __pyx_v_offset = (__pyx_v_aligned_p % __pyx_v_alignment);

	xor	edx, edx
	mov	rax, rcx
	div	r8

; 10148: 
; 10149:   /* "View.MemoryView":304
; 10150:  *         offset = aligned_p % alignment
; 10151:  * 
; 10152:  *     if offset > 0:             # <<<<<<<<<<<<<<
; 10153:  *         aligned_p += alignment - offset
; 10154:  * 
; 10155:  */
; 10156:   __pyx_t_1 = ((__pyx_v_offset > 0) != 0);

	test	rdx, rdx

; 10157:   if (__pyx_t_1) {

	je	SHORT $LN4@pyx_align_

; 10158: 
; 10159:     /* "View.MemoryView":305
; 10160:  * 
; 10161:  *     if offset > 0:
; 10162:  *         aligned_p += alignment - offset             # <<<<<<<<<<<<<<
; 10163:  * 
; 10164:  *     return <void *> aligned_p
; 10165:  */
; 10166:     __pyx_v_aligned_p = (__pyx_v_aligned_p + (__pyx_v_alignment - __pyx_v_offset));

	sub	rcx, rdx
$__pyx_L0$20801:
	lea	rax, QWORD PTR [r8+rcx]

; 10198: }

	ret	0
$LN4@pyx_align_:
$__pyx_L0_1$20801:

; 10167: 
; 10168:     /* "View.MemoryView":304
; 10169:  *         offset = aligned_p % alignment
; 10170:  * 
; 10171:  *     if offset > 0:             # <<<<<<<<<<<<<<
; 10172:  *         aligned_p += alignment - offset
; 10173:  * 
; 10174:  */
; 10175:   }
; 10176: 
; 10177:   /* "View.MemoryView":307
; 10178:  *         aligned_p += alignment - offset
; 10179:  * 
; 10180:  *     return <void *> aligned_p             # <<<<<<<<<<<<<<
; 10181:  * 
; 10182:  * 
; 10183:  */
; 10184:   __pyx_r = ((void *)__pyx_v_aligned_p);
; 10185:   goto __pyx_L0;
; 10186: 
; 10187:   /* "View.MemoryView":296
; 10188:  * 
; 10189:  * @cname('__pyx_align_pointer')
; 10190:  * cdef void *align_pointer(void *memory, size_t alignment) nogil:             # <<<<<<<<<<<<<<
; 10191:  *     "Align pointer memory on a given boundary"
; 10192:  *     cdef Py_intptr_t aligned_p = <Py_intptr_t> memory
; 10193:  */
; 10194: 
; 10195:   /* function exit code */
; 10196:   __pyx_L0:;
; 10197:   return __pyx_r;

	mov	rax, rcx

; 10198: }

	ret	0
__pyx_align_pointer ENDP
_TEXT	ENDS
EXTRN	__imp__Py_NoneStruct:BYTE
;	COMDAT pdata
pdata	SEGMENT
$pdata$__pyx_memoryview___pyx_pf_15View_dot_MemoryView_10memoryview_8__getbuffer__ DD imagerel __pyx_memoryview___pyx_pf_15View_dot_MemoryView_10memoryview_8__getbuffer__
	DD	imagerel __pyx_memoryview___pyx_pf_15View_dot_MemoryView_10memoryview_8__getbuffer__+256
	DD	imagerel $unwind$__pyx_memoryview___pyx_pf_15View_dot_MemoryView_10memoryview_8__getbuffer__
pdata	ENDS
;	COMDAT xdata
xdata	SEGMENT
$unwind$__pyx_memoryview___pyx_pf_15View_dot_MemoryView_10memoryview_8__getbuffer__ DD 060f01H
	DD	07640fH
	DD	06340fH
	DD	0700b320fH
; Function compile flags: /Ogtpy
xdata	ENDS
;	COMDAT __pyx_memoryview___pyx_pf_15View_dot_MemoryView_10memoryview_8__getbuffer__
_TEXT	SEGMENT
__pyx_v_self$ = 48
__pyx_v_info$ = 56
__pyx_v_flags$ = 64
__pyx_memoryview___pyx_pf_15View_dot_MemoryView_10memoryview_8__getbuffer__ PROC ; COMDAT

; 12447: static int __pyx_memoryview___pyx_pf_15View_dot_MemoryView_10memoryview_8__getbuffer__(struct __pyx_memoryview_obj *__pyx_v_self, Py_buffer *__pyx_v_info, int __pyx_v_flags) {

	mov	QWORD PTR [rsp+8], rbx
	mov	QWORD PTR [rsp+16], rsi
	push	rdi
	sub	rsp, 32					; 00000020H
	mov	rbx, rdx
	mov	rdi, rcx

; 12448:   int __pyx_r;
; 12449:   __Pyx_RefNannyDeclarations
; 12450:   int __pyx_t_1;
; 12451:   Py_ssize_t *__pyx_t_2;
; 12452:   char *__pyx_t_3;
; 12453:   void *__pyx_t_4;
; 12454:   int __pyx_t_5;
; 12455:   Py_ssize_t __pyx_t_6;
; 12456:   __Pyx_RefNannySetupContext("__getbuffer__", 0);
; 12457:   if (__pyx_v_info != NULL) {

	test	rdx, rdx
	je	SHORT $LN16@pyx_memory

; 12458:     __pyx_v_info->obj = Py_None; __Pyx_INCREF(Py_None);

	mov	rax, QWORD PTR __imp__Py_NoneStruct
	mov	QWORD PTR [rdx+8], rax
	mov	rax, QWORD PTR __imp__Py_NoneStruct
	inc	QWORD PTR [rax]
$LN16@pyx_memory:

; 12459:     __Pyx_GIVEREF(__pyx_v_info->obj);
; 12460:   }
; 12461: 
; 12462:   /* "View.MemoryView":510
; 12463:  *     @cname('getbuffer')
; 12464:  *     def __getbuffer__(self, Py_buffer *info, int flags):
; 12465:  *         if flags & PyBUF_STRIDES:             # <<<<<<<<<<<<<<
; 12466:  *             info.shape = self.view.shape
; 12467:  *         else:
; 12468:  */
; 12469:   __pyx_t_1 = ((__pyx_v_flags & PyBUF_STRIDES) != 0);

	mov	ecx, r8d
	xor	esi, esi
	and	ecx, 24

; 12470:   if (__pyx_t_1) {

	je	SHORT $LN15@pyx_memory

; 12471: 
; 12472:     /* "View.MemoryView":511
; 12473:  *     def __getbuffer__(self, Py_buffer *info, int flags):
; 12474:  *         if flags & PyBUF_STRIDES:
; 12475:  *             info.shape = self.view.shape             # <<<<<<<<<<<<<<
; 12476:  *         else:
; 12477:  *             info.shape = NULL
; 12478:  */
; 12479:     __pyx_t_2 = __pyx_v_self->view.shape;
; 12480:     __pyx_v_info->shape = __pyx_t_2;

	mov	rax, QWORD PTR [rdi+120]
	mov	QWORD PTR [rdx+48], rax

; 12481: 
; 12482:     /* "View.MemoryView":510
; 12483:  *     @cname('getbuffer')
; 12484:  *     def __getbuffer__(self, Py_buffer *info, int flags):
; 12485:  *         if flags & PyBUF_STRIDES:             # <<<<<<<<<<<<<<
; 12486:  *             info.shape = self.view.shape
; 12487:  *         else:
; 12488:  */
; 12489:     goto __pyx_L3;

	jmp	SHORT $__pyx_L3$22872
$LN15@pyx_memory:

; 12490:   }
; 12491: 
; 12492:   /* "View.MemoryView":513
; 12493:  *             info.shape = self.view.shape
; 12494:  *         else:
; 12495:  *             info.shape = NULL             # <<<<<<<<<<<<<<
; 12496:  * 
; 12497:  *         if flags & PyBUF_STRIDES:
; 12498:  */
; 12499:   /*else*/ {
; 12500:     __pyx_v_info->shape = NULL;

	mov	QWORD PTR [rdx+48], rsi
$__pyx_L3$22872:

; 12501:   }
; 12502:   __pyx_L3:;
; 12503: 
; 12504:   /* "View.MemoryView":515
; 12505:  *             info.shape = NULL
; 12506:  * 
; 12507:  *         if flags & PyBUF_STRIDES:             # <<<<<<<<<<<<<<
; 12508:  *             info.strides = self.view.strides
; 12509:  *         else:
; 12510:  */
; 12511:   __pyx_t_1 = ((__pyx_v_flags & PyBUF_STRIDES) != 0);

	test	ecx, ecx

; 12512:   if (__pyx_t_1) {

	je	SHORT $LN14@pyx_memory

; 12513: 
; 12514:     /* "View.MemoryView":516
; 12515:  * 
; 12516:  *         if flags & PyBUF_STRIDES:
; 12517:  *             info.strides = self.view.strides             # <<<<<<<<<<<<<<
; 12518:  *         else:
; 12519:  *             info.strides = NULL
; 12520:  */
; 12521:     __pyx_t_2 = __pyx_v_self->view.strides;
; 12522:     __pyx_v_info->strides = __pyx_t_2;

	mov	rax, QWORD PTR [rdi+128]
	mov	QWORD PTR [rdx+56], rax

; 12523: 
; 12524:     /* "View.MemoryView":515
; 12525:  *             info.shape = NULL
; 12526:  * 
; 12527:  *         if flags & PyBUF_STRIDES:             # <<<<<<<<<<<<<<
; 12528:  *             info.strides = self.view.strides
; 12529:  *         else:
; 12530:  */
; 12531:     goto __pyx_L4;

	jmp	SHORT $__pyx_L4$22875
$LN14@pyx_memory:

; 12532:   }
; 12533: 
; 12534:   /* "View.MemoryView":518
; 12535:  *             info.strides = self.view.strides
; 12536:  *         else:
; 12537:  *             info.strides = NULL             # <<<<<<<<<<<<<<
; 12538:  * 
; 12539:  *         if flags & PyBUF_INDIRECT:
; 12540:  */
; 12541:   /*else*/ {
; 12542:     __pyx_v_info->strides = NULL;

	mov	QWORD PTR [rdx+56], rsi
$__pyx_L4$22875:

; 12543:   }
; 12544:   __pyx_L4:;
; 12545: 
; 12546:   /* "View.MemoryView":520
; 12547:  *             info.strides = NULL
; 12548:  * 
; 12549:  *         if flags & PyBUF_INDIRECT:             # <<<<<<<<<<<<<<
; 12550:  *             info.suboffsets = self.view.suboffsets
; 12551:  *         else:
; 12552:  */
; 12553:   __pyx_t_1 = ((__pyx_v_flags & PyBUF_INDIRECT) != 0);

	test	r8d, 280				; 00000118H

; 12554:   if (__pyx_t_1) {

	je	SHORT $LN13@pyx_memory

; 12555: 
; 12556:     /* "View.MemoryView":521
; 12557:  * 
; 12558:  *         if flags & PyBUF_INDIRECT:
; 12559:  *             info.suboffsets = self.view.suboffsets             # <<<<<<<<<<<<<<
; 12560:  *         else:
; 12561:  *             info.suboffsets = NULL
; 12562:  */
; 12563:     __pyx_t_2 = __pyx_v_self->view.suboffsets;
; 12564:     __pyx_v_info->suboffsets = __pyx_t_2;

	mov	rax, QWORD PTR [rdi+136]
	mov	QWORD PTR [rdx+64], rax

; 12565: 
; 12566:     /* "View.MemoryView":520
; 12567:  *             info.strides = NULL
; 12568:  * 
; 12569:  *         if flags & PyBUF_INDIRECT:             # <<<<<<<<<<<<<<
; 12570:  *             info.suboffsets = self.view.suboffsets
; 12571:  *         else:
; 12572:  */
; 12573:     goto __pyx_L5;

	jmp	SHORT $__pyx_L5$22878
$LN13@pyx_memory:

; 12574:   }
; 12575: 
; 12576:   /* "View.MemoryView":523
; 12577:  *             info.suboffsets = self.view.suboffsets
; 12578:  *         else:
; 12579:  *             info.suboffsets = NULL             # <<<<<<<<<<<<<<
; 12580:  * 
; 12581:  *         if flags & PyBUF_FORMAT:
; 12582:  */
; 12583:   /*else*/ {
; 12584:     __pyx_v_info->suboffsets = NULL;

	mov	QWORD PTR [rdx+64], rsi
$__pyx_L5$22878:

; 12585:   }
; 12586:   __pyx_L5:;
; 12587: 
; 12588:   /* "View.MemoryView":525
; 12589:  *             info.suboffsets = NULL
; 12590:  * 
; 12591:  *         if flags & PyBUF_FORMAT:             # <<<<<<<<<<<<<<
; 12592:  *             info.format = self.view.format
; 12593:  *         else:
; 12594:  */
; 12595:   __pyx_t_1 = ((__pyx_v_flags & PyBUF_FORMAT) != 0);
; 12596:   if (__pyx_t_1) {

	test	r8b, 4
	je	SHORT $LN12@pyx_memory

; 12597: 
; 12598:     /* "View.MemoryView":526
; 12599:  * 
; 12600:  *         if flags & PyBUF_FORMAT:
; 12601:  *             info.format = self.view.format             # <<<<<<<<<<<<<<
; 12602:  *         else:
; 12603:  *             info.format = NULL
; 12604:  */
; 12605:     __pyx_t_3 = __pyx_v_self->view.format;
; 12606:     __pyx_v_info->format = __pyx_t_3;

	mov	rax, QWORD PTR [rdi+112]
	mov	QWORD PTR [rdx+40], rax

; 12607: 
; 12608:     /* "View.MemoryView":525
; 12609:  *             info.suboffsets = NULL
; 12610:  * 
; 12611:  *         if flags & PyBUF_FORMAT:             # <<<<<<<<<<<<<<
; 12612:  *             info.format = self.view.format
; 12613:  *         else:
; 12614:  */
; 12615:     goto __pyx_L6;

	jmp	SHORT $__pyx_L6$22881
$LN12@pyx_memory:

; 12616:   }
; 12617: 
; 12618:   /* "View.MemoryView":528
; 12619:  *             info.format = self.view.format
; 12620:  *         else:
; 12621:  *             info.format = NULL             # <<<<<<<<<<<<<<
; 12622:  * 
; 12623:  *         info.buf = self.view.buf
; 12624:  */
; 12625:   /*else*/ {
; 12626:     __pyx_v_info->format = NULL;

	mov	QWORD PTR [rdx+40], rsi
$__pyx_L6$22881:

; 12627:   }
; 12628:   __pyx_L6:;
; 12629: 
; 12630:   /* "View.MemoryView":530
; 12631:  *             info.format = NULL
; 12632:  * 
; 12633:  *         info.buf = self.view.buf             # <<<<<<<<<<<<<<
; 12634:  *         info.ndim = self.view.ndim
; 12635:  *         info.itemsize = self.view.itemsize
; 12636:  */
; 12637:   __pyx_t_4 = __pyx_v_self->view.buf;
; 12638:   __pyx_v_info->buf = __pyx_t_4;

	mov	rax, QWORD PTR [rdi+72]
	mov	QWORD PTR [rdx], rax

; 12639: 
; 12640:   /* "View.MemoryView":531
; 12641:  * 
; 12642:  *         info.buf = self.view.buf
; 12643:  *         info.ndim = self.view.ndim             # <<<<<<<<<<<<<<
; 12644:  *         info.itemsize = self.view.itemsize
; 12645:  *         info.len = self.view.len
; 12646:  */
; 12647:   __pyx_t_5 = __pyx_v_self->view.ndim;
; 12648:   __pyx_v_info->ndim = __pyx_t_5;

	mov	eax, DWORD PTR [rdi+108]
	mov	DWORD PTR [rdx+36], eax

; 12649: 
; 12650:   /* "View.MemoryView":532
; 12651:  *         info.buf = self.view.buf
; 12652:  *         info.ndim = self.view.ndim
; 12653:  *         info.itemsize = self.view.itemsize             # <<<<<<<<<<<<<<
; 12654:  *         info.len = self.view.len
; 12655:  *         info.readonly = 0
; 12656:  */
; 12657:   __pyx_t_6 = __pyx_v_self->view.itemsize;
; 12658:   __pyx_v_info->itemsize = __pyx_t_6;

	mov	rax, QWORD PTR [rdi+96]
	mov	QWORD PTR [rdx+24], rax

; 12659: 
; 12660:   /* "View.MemoryView":533
; 12661:  *         info.ndim = self.view.ndim
; 12662:  *         info.itemsize = self.view.itemsize
; 12663:  *         info.len = self.view.len             # <<<<<<<<<<<<<<
; 12664:  *         info.readonly = 0
; 12665:  *         info.obj = self
; 12666:  */
; 12667:   __pyx_t_6 = __pyx_v_self->view.len;
; 12668:   __pyx_v_info->len = __pyx_t_6;

	mov	rax, QWORD PTR [rdi+88]

; 12669: 
; 12670:   /* "View.MemoryView":534
; 12671:  *         info.itemsize = self.view.itemsize
; 12672:  *         info.len = self.view.len
; 12673:  *         info.readonly = 0             # <<<<<<<<<<<<<<
; 12674:  *         info.obj = self
; 12675:  * 
; 12676:  */
; 12677:   __pyx_v_info->readonly = 0;

	mov	DWORD PTR [rdx+32], esi
	mov	QWORD PTR [rdx+16], rax

; 12678: 
; 12679:   /* "View.MemoryView":535
; 12680:  *         info.len = self.view.len
; 12681:  *         info.readonly = 0
; 12682:  *         info.obj = self             # <<<<<<<<<<<<<<
; 12683:  * 
; 12684:  *     __pyx_getbuffer = capsule(<void *> &__pyx_memoryview_getbuffer, "getbuffer(obj, view, flags)")
; 12685:  */
; 12686:   __Pyx_INCREF(((PyObject *)__pyx_v_self));

	inc	QWORD PTR [rdi]

; 12687:   __Pyx_GIVEREF(((PyObject *)__pyx_v_self));
; 12688:   __Pyx_GOTREF(__pyx_v_info->obj);
; 12689:   __Pyx_DECREF(__pyx_v_info->obj);

	mov	rax, QWORD PTR [rdx+8]
	dec	QWORD PTR [rax]
	mov	rcx, QWORD PTR [rdx+8]
	cmp	QWORD PTR [rcx], rsi
	jne	SHORT $LN10@pyx_memory
	mov	rax, QWORD PTR [rcx+8]
	call	QWORD PTR [rax+48]
$LN10@pyx_memory:

; 12690:   __pyx_v_info->obj = ((PyObject *)__pyx_v_self);

	mov	QWORD PTR [rbx+8], rdi

; 12691: 
; 12692:   /* "View.MemoryView":509
; 12693:  * 
; 12694:  *     @cname('getbuffer')
; 12695:  *     def __getbuffer__(self, Py_buffer *info, int flags):             # <<<<<<<<<<<<<<
; 12696:  *         if flags & PyBUF_STRIDES:
; 12697:  *             info.shape = self.view.shape
; 12698:  */
; 12699: 
; 12700:   /* function exit code */
; 12701:   __pyx_r = 0;
; 12702:   if (__pyx_v_info != NULL && __pyx_v_info->obj == Py_None) {

	mov	rax, QWORD PTR __imp__Py_NoneStruct
	cmp	rdi, rax
	jne	SHORT $LN19@pyx_memory

; 12703:     __Pyx_GOTREF(Py_None);
; 12704:     __Pyx_DECREF(Py_None); __pyx_v_info->obj = NULL;

	dec	QWORD PTR [rax]
	mov	rcx, QWORD PTR __imp__Py_NoneStruct
	cmp	QWORD PTR [rcx], rsi
	jne	SHORT $LN4@pyx_memory
	mov	rax, QWORD PTR [rcx+8]
	call	QWORD PTR [rax+48]
$LN4@pyx_memory:
	mov	QWORD PTR [rbx+8], rsi
$LN19@pyx_memory:

; 12705:   }
; 12706:   __Pyx_RefNannyFinishContext();
; 12707:   return __pyx_r;
; 12708: }

	mov	rbx, QWORD PTR [rsp+48]
	mov	rsi, QWORD PTR [rsp+56]
	xor	eax, eax
	add	rsp, 32					; 00000020H
	pop	rdi
	ret	0
__pyx_memoryview___pyx_pf_15View_dot_MemoryView_10memoryview_8__getbuffer__ ENDP
; Function compile flags: /Ogtpy
_TEXT	ENDS
;	COMDAT __pyx_pf_15View_dot_MemoryView_10memoryview_4base___get__
_TEXT	SEGMENT
__pyx_v_self$ = 8
__pyx_pf_15View_dot_MemoryView_10memoryview_4base___get__ PROC ; COMDAT

; 12815:   PyObject *__pyx_r = NULL;
; 12816:   __Pyx_RefNannyDeclarations
; 12817:   __Pyx_RefNannySetupContext("__get__", 0);
; 12818: 
; 12819:   /* "View.MemoryView":548
; 12820:  *     @property
; 12821:  *     def base(self):
; 12822:  *         return self.obj             # <<<<<<<<<<<<<<
; 12823:  * 
; 12824:  *     @property
; 12825:  */
; 12826:   __Pyx_XDECREF(__pyx_r);
; 12827:   __Pyx_INCREF(__pyx_v_self->obj);

	mov	rax, QWORD PTR [rcx+24]
$__pyx_L0$23020:
	inc	QWORD PTR [rax]

; 12828:   __pyx_r = __pyx_v_self->obj;
; 12829:   goto __pyx_L0;
; 12830: 
; 12831:   /* "View.MemoryView":547
; 12832:  * 
; 12833:  *     @property
; 12834:  *     def base(self):             # <<<<<<<<<<<<<<
; 12835:  *         return self.obj
; 12836:  * 
; 12837:  */
; 12838: 
; 12839:   /* function exit code */
; 12840:   __pyx_L0:;
; 12841:   __Pyx_XGIVEREF(__pyx_r);
; 12842:   __Pyx_RefNannyFinishContext();
; 12843:   return __pyx_r;

	mov	rax, QWORD PTR [rcx+24]

; 12844: }

	ret	0
__pyx_pf_15View_dot_MemoryView_10memoryview_4base___get__ ENDP
; Function compile flags: /Ogtpy
_TEXT	ENDS
;	COMDAT __pyx_memoryview___pyx_pf_15View_dot_MemoryView_10memoryview_10__len__
_TEXT	SEGMENT
__pyx_v_self$ = 8
__pyx_memoryview___pyx_pf_15View_dot_MemoryView_10memoryview_10__len__ PROC ; COMDAT

; 13500:   Py_ssize_t __pyx_r;
; 13501:   __Pyx_RefNannyDeclarations
; 13502:   int __pyx_t_1;
; 13503:   __Pyx_RefNannySetupContext("__len__", 0);
; 13504: 
; 13505:   /* "View.MemoryView":594
; 13506:  * 
; 13507:  *     def __len__(self):
; 13508:  *         if self.view.ndim >= 1:             # <<<<<<<<<<<<<<
; 13509:  *             return self.view.shape[0]
; 13510:  * 
; 13511:  */
; 13512:   __pyx_t_1 = ((__pyx_v_self->view.ndim >= 1) != 0);

	cmp	DWORD PTR [rcx+108], 1

; 13513:   if (__pyx_t_1) {

	jl	SHORT $LN1@pyx_memory@2

; 13514: 
; 13515:     /* "View.MemoryView":595
; 13516:  *     def __len__(self):
; 13517:  *         if self.view.ndim >= 1:
; 13518:  *             return self.view.shape[0]             # <<<<<<<<<<<<<<
; 13519:  * 
; 13520:  *         return 0
; 13521:  */
; 13522:     __pyx_r = (__pyx_v_self->view.shape[0]);

	mov	rax, QWORD PTR [rcx+120]

; 13523:     goto __pyx_L0;
; 13524: 
; 13525:     /* "View.MemoryView":594
; 13526:  * 
; 13527:  *     def __len__(self):
; 13528:  *         if self.view.ndim >= 1:             # <<<<<<<<<<<<<<
; 13529:  *             return self.view.shape[0]
; 13530:  * 
; 13531:  */
; 13532:   }
; 13533: 
; 13534:   /* "View.MemoryView":597
; 13535:  *             return self.view.shape[0]
; 13536:  * 
; 13537:  *         return 0             # <<<<<<<<<<<<<<
; 13538:  * 
; 13539:  *     def __repr__(self):
; 13540:  */
; 13541:   __pyx_r = 0;
; 13542:   goto __pyx_L0;
; 13543: 
; 13544:   /* "View.MemoryView":593
; 13545:  *         return self._size
; 13546:  * 
; 13547:  *     def __len__(self):             # <<<<<<<<<<<<<<
; 13548:  *         if self.view.ndim >= 1:
; 13549:  *             return self.view.shape[0]
; 13550:  */
; 13551: 
; 13552:   /* function exit code */
; 13553:   __pyx_L0:;
; 13554:   __Pyx_RefNannyFinishContext();
; 13555:   return __pyx_r;

	mov	rax, QWORD PTR [rax]

; 13556: }

	ret	0
$LN1@pyx_memory@2:

; 13523:     goto __pyx_L0;
; 13524: 
; 13525:     /* "View.MemoryView":594
; 13526:  * 
; 13527:  *     def __len__(self):
; 13528:  *         if self.view.ndim >= 1:             # <<<<<<<<<<<<<<
; 13529:  *             return self.view.shape[0]
; 13530:  * 
; 13531:  */
; 13532:   }
; 13533: 
; 13534:   /* "View.MemoryView":597
; 13535:  *             return self.view.shape[0]
; 13536:  * 
; 13537:  *         return 0             # <<<<<<<<<<<<<<
; 13538:  * 
; 13539:  *     def __repr__(self):
; 13540:  */
; 13541:   __pyx_r = 0;
; 13542:   goto __pyx_L0;
; 13543: 
; 13544:   /* "View.MemoryView":593
; 13545:  *         return self._size
; 13546:  * 
; 13547:  *     def __len__(self):             # <<<<<<<<<<<<<<
; 13548:  *         if self.view.ndim >= 1:
; 13549:  *             return self.view.shape[0]
; 13550:  */
; 13551: 
; 13552:   /* function exit code */
; 13553:   __pyx_L0:;
; 13554:   __Pyx_RefNannyFinishContext();
; 13555:   return __pyx_r;

	xor	eax, eax
$__pyx_L0$23749:

; 13556: }

	ret	0
__pyx_memoryview___pyx_pf_15View_dot_MemoryView_10memoryview_10__len__ ENDP
; Function compile flags: /Ogtpy
_TEXT	ENDS
;	COMDAT __pyx_pf_15View_dot_MemoryView_16_memoryviewslice_4base___get__
_TEXT	SEGMENT
__pyx_v_self$ = 8
__pyx_pf_15View_dot_MemoryView_16_memoryviewslice_4base___get__ PROC ; COMDAT

; 16914:   PyObject *__pyx_r = NULL;
; 16915:   __Pyx_RefNannyDeclarations
; 16916:   __Pyx_RefNannySetupContext("__get__", 0);
; 16917: 
; 16918:   /* "View.MemoryView":981
; 16919:  *     @property
; 16920:  *     def base(self):
; 16921:  *         return self.from_object             # <<<<<<<<<<<<<<
; 16922:  * 
; 16923:  *     __pyx_getbuffer = capsule(<void *> &__pyx_memoryview_getbuffer, "getbuffer(obj, view, flags)")
; 16924:  */
; 16925:   __Pyx_XDECREF(__pyx_r);
; 16926:   __Pyx_INCREF(__pyx_v_self->from_object);

	mov	rax, QWORD PTR [rcx+392]
$__pyx_L0$25745:
	inc	QWORD PTR [rax]

; 16927:   __pyx_r = __pyx_v_self->from_object;
; 16928:   goto __pyx_L0;
; 16929: 
; 16930:   /* "View.MemoryView":980
; 16931:  * 
; 16932:  *     @property
; 16933:  *     def base(self):             # <<<<<<<<<<<<<<
; 16934:  *         return self.from_object
; 16935:  * 
; 16936:  */
; 16937: 
; 16938:   /* function exit code */
; 16939:   __pyx_L0:;
; 16940:   __Pyx_XGIVEREF(__pyx_r);
; 16941:   __Pyx_RefNannyFinishContext();
; 16942:   return __pyx_r;

	mov	rax, QWORD PTR [rcx+392]

; 16943: }

	ret	0
__pyx_pf_15View_dot_MemoryView_16_memoryviewslice_4base___get__ ENDP
; Function compile flags: /Ogtpy
_TEXT	ENDS
;	COMDAT __pyx_memoryview_slice_copy
_TEXT	SEGMENT
__pyx_v_memview$ = 8
__pyx_v_dst$ = 16
__pyx_memoryview_slice_copy PROC			; COMDAT

; 17513:   int __pyx_v_dim;
; 17514:   Py_ssize_t *__pyx_v_shape;
; 17515:   Py_ssize_t *__pyx_v_strides;
; 17516:   Py_ssize_t *__pyx_v_suboffsets;
; 17517:   __Pyx_RefNannyDeclarations
; 17518:   Py_ssize_t *__pyx_t_1;
; 17519:   int __pyx_t_2;
; 17520:   int __pyx_t_3;
; 17521:   Py_ssize_t __pyx_t_4;
; 17522:   __Pyx_RefNannySetupContext("slice_copy", 0);
; 17523: 
; 17524:   /* "View.MemoryView":1052
; 17525:  *     cdef (Py_ssize_t*) shape, strides, suboffsets
; 17526:  * 
; 17527:  *     shape = memview.view.shape             # <<<<<<<<<<<<<<
; 17528:  *     strides = memview.view.strides
; 17529:  *     suboffsets = memview.view.suboffsets
; 17530:  */
; 17531:   __pyx_t_1 = __pyx_v_memview->view.shape;
; 17532:   __pyx_v_shape = __pyx_t_1;

	mov	r10, QWORD PTR [rcx+120]

; 17533: 
; 17534:   /* "View.MemoryView":1053
; 17535:  * 
; 17536:  *     shape = memview.view.shape
; 17537:  *     strides = memview.view.strides             # <<<<<<<<<<<<<<
; 17538:  *     suboffsets = memview.view.suboffsets
; 17539:  * 
; 17540:  */
; 17541:   __pyx_t_1 = __pyx_v_memview->view.strides;
; 17542:   __pyx_v_strides = __pyx_t_1;

	mov	r8, QWORD PTR [rcx+128]

; 17543: 
; 17544:   /* "View.MemoryView":1054
; 17545:  *     shape = memview.view.shape
; 17546:  *     strides = memview.view.strides
; 17547:  *     suboffsets = memview.view.suboffsets             # <<<<<<<<<<<<<<
; 17548:  * 
; 17549:  *     dst.memview = <__pyx_memoryview *> memview
; 17550:  */
; 17551:   __pyx_t_1 = __pyx_v_memview->view.suboffsets;
; 17552:   __pyx_v_suboffsets = __pyx_t_1;

	mov	r11, QWORD PTR [rcx+136]

; 17553: 
; 17554:   /* "View.MemoryView":1056
; 17555:  *     suboffsets = memview.view.suboffsets
; 17556:  * 
; 17557:  *     dst.memview = <__pyx_memoryview *> memview             # <<<<<<<<<<<<<<
; 17558:  *     dst.data = <char *> memview.view.buf
; 17559:  * 
; 17560:  */
; 17561:   __pyx_v_dst->memview = ((struct __pyx_memoryview_obj *)__pyx_v_memview);

	mov	QWORD PTR [rdx], rcx

; 17562: 
; 17563:   /* "View.MemoryView":1057
; 17564:  * 
; 17565:  *     dst.memview = <__pyx_memoryview *> memview
; 17566:  *     dst.data = <char *> memview.view.buf             # <<<<<<<<<<<<<<
; 17567:  * 
; 17568:  *     for dim in range(memview.view.ndim):
; 17569:  */
; 17570:   __pyx_v_dst->data = ((char *)__pyx_v_memview->view.buf);

	mov	rax, QWORD PTR [rcx+72]
	mov	QWORD PTR [rdx+8], rax

; 17571: 
; 17572:   /* "View.MemoryView":1059
; 17573:  *     dst.data = <char *> memview.view.buf
; 17574:  * 
; 17575:  *     for dim in range(memview.view.ndim):             # <<<<<<<<<<<<<<
; 17576:  *         dst.shape[dim] = shape[dim]
; 17577:  *         dst.strides[dim] = strides[dim]
; 17578:  */
; 17579:   __pyx_t_2 = __pyx_v_memview->view.ndim;
; 17580:   for (__pyx_t_3 = 0; __pyx_t_3 < __pyx_t_2; __pyx_t_3+=1) {

	movsxd	r9, DWORD PTR [rcx+108]
	test	r9, r9
	jle	SHORT $LN3@pyx_memory@3
	lea	rcx, QWORD PTR [rdx+80]
	mov	rdx, r11
	sub	r10, r8
	sub	rdx, r8
	npad	13
$LL5@pyx_memory@3:

; 17581:     __pyx_v_dim = __pyx_t_3;
; 17582: 
; 17583:     /* "View.MemoryView":1060
; 17584:  * 
; 17585:  *     for dim in range(memview.view.ndim):
; 17586:  *         dst.shape[dim] = shape[dim]             # <<<<<<<<<<<<<<
; 17587:  *         dst.strides[dim] = strides[dim]
; 17588:  *         dst.suboffsets[dim] = suboffsets[dim] if suboffsets else -1
; 17589:  */
; 17590:     (__pyx_v_dst->shape[__pyx_v_dim]) = (__pyx_v_shape[__pyx_v_dim]);

	mov	rax, QWORD PTR [r10+r8]
	mov	QWORD PTR [rcx-64], rax

; 17591: 
; 17592:     /* "View.MemoryView":1061
; 17593:  *     for dim in range(memview.view.ndim):
; 17594:  *         dst.shape[dim] = shape[dim]
; 17595:  *         dst.strides[dim] = strides[dim]             # <<<<<<<<<<<<<<
; 17596:  *         dst.suboffsets[dim] = suboffsets[dim] if suboffsets else -1
; 17597:  * 
; 17598:  */
; 17599:     (__pyx_v_dst->strides[__pyx_v_dim]) = (__pyx_v_strides[__pyx_v_dim]);

	mov	rax, QWORD PTR [r8]
	mov	QWORD PTR [rcx], rax

; 17600: 
; 17601:     /* "View.MemoryView":1062
; 17602:  *         dst.shape[dim] = shape[dim]
; 17603:  *         dst.strides[dim] = strides[dim]
; 17604:  *         dst.suboffsets[dim] = suboffsets[dim] if suboffsets else -1             # <<<<<<<<<<<<<<
; 17605:  * 
; 17606:  * @cname('__pyx_memoryview_copy_object')
; 17607:  */
; 17608:     if ((__pyx_v_suboffsets != 0)) {

	test	r11, r11
	je	SHORT $LN2@pyx_memory@3

; 17609:       __pyx_t_4 = (__pyx_v_suboffsets[__pyx_v_dim]);

	mov	rax, QWORD PTR [rdx+r8]

; 17610:     } else {

	jmp	SHORT $LN1@pyx_memory@3
$LN2@pyx_memory@3:

; 17611:       __pyx_t_4 = -1L;

	or	rax, -1
$LN1@pyx_memory@3:

; 17612:     }
; 17613:     (__pyx_v_dst->suboffsets[__pyx_v_dim]) = __pyx_t_4;

	mov	QWORD PTR [rcx+64], rax
	add	rcx, 8
	add	r8, 8
	sub	r9, 1
	jne	SHORT $LL5@pyx_memory@3
$LN3@pyx_memory@3:

; 17614:   }
; 17615: 
; 17616:   /* "View.MemoryView":1048
; 17617:  * 
; 17618:  * @cname('__pyx_memoryview_slice_copy')
; 17619:  * cdef void slice_copy(memoryview memview, __Pyx_memviewslice *dst):             # <<<<<<<<<<<<<<
; 17620:  *     cdef int dim
; 17621:  *     cdef (Py_ssize_t*) shape, strides, suboffsets
; 17622:  */
; 17623: 
; 17624:   /* function exit code */
; 17625:   __Pyx_RefNannyFinishContext();
; 17626: }

	fatret	0
__pyx_memoryview_slice_copy ENDP
; Function compile flags: /Ogtpy
_TEXT	ENDS
;	COMDAT abs_py_ssize_t
_TEXT	SEGMENT
__pyx_v_arg$ = 8
abs_py_ssize_t PROC					; COMDAT

; 17817:   Py_ssize_t __pyx_r;
; 17818:   int __pyx_t_1;
; 17819: 
; 17820:   /* "View.MemoryView":1095
; 17821:  * 
; 17822:  * cdef Py_ssize_t abs_py_ssize_t(Py_ssize_t arg) nogil:
; 17823:  *     if arg < 0:             # <<<<<<<<<<<<<<
; 17824:  *         return -arg
; 17825:  *     else:
; 17826:  */
; 17827:   __pyx_t_1 = ((__pyx_v_arg < 0) != 0);

	test	rcx, rcx

; 17828:   if (__pyx_t_1) {

	jns	SHORT $LN1@abs_py_ssi

; 17829: 
; 17830:     /* "View.MemoryView":1096
; 17831:  * cdef Py_ssize_t abs_py_ssize_t(Py_ssize_t arg) nogil:
; 17832:  *     if arg < 0:
; 17833:  *         return -arg             # <<<<<<<<<<<<<<
; 17834:  *     else:
; 17835:  *         return arg
; 17836:  */
; 17837:     __pyx_r = (-__pyx_v_arg);

	neg	rcx
$LN1@abs_py_ssi:

; 17838:     goto __pyx_L0;
; 17839: 
; 17840:     /* "View.MemoryView":1095
; 17841:  * 
; 17842:  * cdef Py_ssize_t abs_py_ssize_t(Py_ssize_t arg) nogil:
; 17843:  *     if arg < 0:             # <<<<<<<<<<<<<<
; 17844:  *         return -arg
; 17845:  *     else:
; 17846:  */
; 17847:   }
; 17848: 
; 17849:   /* "View.MemoryView":1098
; 17850:  *         return -arg
; 17851:  *     else:
; 17852:  *         return arg             # <<<<<<<<<<<<<<
; 17853:  * 
; 17854:  * @cname('__pyx_get_best_slice_order')
; 17855:  */
; 17856:   /*else*/ {
; 17857:     __pyx_r = __pyx_v_arg;
; 17858:     goto __pyx_L0;
; 17859:   }
; 17860: 
; 17861:   /* "View.MemoryView":1094
; 17862:  * 
; 17863:  * 
; 17864:  * cdef Py_ssize_t abs_py_ssize_t(Py_ssize_t arg) nogil:             # <<<<<<<<<<<<<<
; 17865:  *     if arg < 0:
; 17866:  *         return -arg
; 17867:  */
; 17868: 
; 17869:   /* function exit code */
; 17870:   __pyx_L0:;
; 17871:   return __pyx_r;

	mov	rax, rcx
$__pyx_L0$26285:

; 17872: }

	ret	0
abs_py_ssize_t ENDP
_TEXT	ENDS
;	COMDAT pdata
pdata	SEGMENT
$pdata$__pyx_get_best_slice_order DD imagerel __pyx_get_best_slice_order
	DD	imagerel __pyx_get_best_slice_order+148
	DD	imagerel $unwind$__pyx_get_best_slice_order
pdata	ENDS
;	COMDAT xdata
xdata	SEGMENT
$unwind$__pyx_get_best_slice_order DD 020501H
	DD	013405H
; Function compile flags: /Ogtpy
xdata	ENDS
;	COMDAT __pyx_get_best_slice_order
_TEXT	SEGMENT
__pyx_v_mslice$ = 8
__pyx_v_ndim$ = 16
__pyx_get_best_slice_order PROC				; COMDAT

; 17882: static char __pyx_get_best_slice_order(__Pyx_memviewslice *__pyx_v_mslice, int __pyx_v_ndim) {

	mov	QWORD PTR [rsp+8], rbx

; 17883:   int __pyx_v_i;
; 17884:   Py_ssize_t __pyx_v_c_stride;
; 17885:   Py_ssize_t __pyx_v_f_stride;
; 17886:   char __pyx_r;
; 17887:   int __pyx_t_1;
; 17888:   int __pyx_t_2;
; 17889:   int __pyx_t_3;
; 17890: 
; 17891:   /* "View.MemoryView":1106
; 17892:  *     """
; 17893:  *     cdef int i
; 17894:  *     cdef Py_ssize_t c_stride = 0             # <<<<<<<<<<<<<<
; 17895:  *     cdef Py_ssize_t f_stride = 0
; 17896:  * 
; 17897:  */
; 17898:   __pyx_v_c_stride = 0;

	xor	r9d, r9d
	movsxd	rbx, edx
	mov	r11, rcx

; 17899: 
; 17900:   /* "View.MemoryView":1107
; 17901:  *     cdef int i
; 17902:  *     cdef Py_ssize_t c_stride = 0
; 17903:  *     cdef Py_ssize_t f_stride = 0             # <<<<<<<<<<<<<<
; 17904:  * 
; 17905:  *     for i in range(ndim - 1, -1, -1):
; 17906:  */
; 17907:   __pyx_v_f_stride = 0;
; 17908: 
; 17909:   /* "View.MemoryView":1109
; 17910:  *     cdef Py_ssize_t f_stride = 0
; 17911:  * 
; 17912:  *     for i in range(ndim - 1, -1, -1):             # <<<<<<<<<<<<<<
; 17913:  *         if mslice.shape[i] > 1:
; 17914:  *             c_stride = mslice.strides[i]
; 17915:  */
; 17916:   for (__pyx_t_1 = (__pyx_v_ndim - 1); __pyx_t_1 > -1L; __pyx_t_1-=1) {

	lea	r8d, DWORD PTR [rbx-1]
	mov	r10, r9
	cmp	r8d, -1
	movsxd	rax, r8d
	jle	SHORT $__pyx_L4_break$26302

; 17883:   int __pyx_v_i;
; 17884:   Py_ssize_t __pyx_v_c_stride;
; 17885:   Py_ssize_t __pyx_v_f_stride;
; 17886:   char __pyx_r;
; 17887:   int __pyx_t_1;
; 17888:   int __pyx_t_2;
; 17889:   int __pyx_t_3;
; 17890: 
; 17891:   /* "View.MemoryView":1106
; 17892:  *     """
; 17893:  *     cdef int i
; 17894:  *     cdef Py_ssize_t c_stride = 0             # <<<<<<<<<<<<<<
; 17895:  *     cdef Py_ssize_t f_stride = 0
; 17896:  * 
; 17897:  */
; 17898:   __pyx_v_c_stride = 0;

	lea	rax, QWORD PTR [rcx+rax*8+16]
$LL9@pyx_get_be:

; 17917:     __pyx_v_i = __pyx_t_1;
; 17918: 
; 17919:     /* "View.MemoryView":1110
; 17920:  * 
; 17921:  *     for i in range(ndim - 1, -1, -1):
; 17922:  *         if mslice.shape[i] > 1:             # <<<<<<<<<<<<<<
; 17923:  *             c_stride = mslice.strides[i]
; 17924:  *             break
; 17925:  */
; 17926:     __pyx_t_2 = (((__pyx_v_mslice->shape[__pyx_v_i]) > 1) != 0);

	cmp	QWORD PTR [rax], 1

; 17927:     if (__pyx_t_2) {

	jg	SHORT $LN20@pyx_get_be
	dec	r8d
	sub	rax, 8
	cmp	r8d, -1
	jg	SHORT $LL9@pyx_get_be

; 17977:     if (__pyx_t_2) {

	jmp	SHORT $__pyx_L4_break$26302
$LN20@pyx_get_be:

; 17928: 
; 17929:       /* "View.MemoryView":1111
; 17930:  *     for i in range(ndim - 1, -1, -1):
; 17931:  *         if mslice.shape[i] > 1:
; 17932:  *             c_stride = mslice.strides[i]             # <<<<<<<<<<<<<<
; 17933:  *             break
; 17934:  * 
; 17935:  */
; 17936:       __pyx_v_c_stride = (__pyx_v_mslice->strides[__pyx_v_i]);

	movsxd	rax, r8d
	mov	r10, QWORD PTR [rcx+rax*8+80]
$__pyx_L4_break$26302:

; 17937: 
; 17938:       /* "View.MemoryView":1112
; 17939:  *         if mslice.shape[i] > 1:
; 17940:  *             c_stride = mslice.strides[i]
; 17941:  *             break             # <<<<<<<<<<<<<<
; 17942:  * 
; 17943:  *     for i in range(ndim):
; 17944:  */
; 17945:       goto __pyx_L4_break;
; 17946: 
; 17947:       /* "View.MemoryView":1110
; 17948:  * 
; 17949:  *     for i in range(ndim - 1, -1, -1):
; 17950:  *         if mslice.shape[i] > 1:             # <<<<<<<<<<<<<<
; 17951:  *             c_stride = mslice.strides[i]
; 17952:  *             break
; 17953:  */
; 17954:     }
; 17955:   }
; 17956:   __pyx_L4_break:;
; 17957: 
; 17958:   /* "View.MemoryView":1114
; 17959:  *             break
; 17960:  * 
; 17961:  *     for i in range(ndim):             # <<<<<<<<<<<<<<
; 17962:  *         if mslice.shape[i] > 1:
; 17963:  *             f_stride = mslice.strides[i]
; 17964:  */
; 17965:   __pyx_t_1 = __pyx_v_ndim;
; 17966:   for (__pyx_t_3 = 0; __pyx_t_3 < __pyx_t_1; __pyx_t_3+=1) {

	mov	edx, r9d
	mov	rcx, r9
	test	ebx, ebx
	jle	SHORT $__pyx_L7_break$26307
	lea	rax, QWORD PTR [r11+16]
	npad	2
$LL5@pyx_get_be:

; 17967:     __pyx_v_i = __pyx_t_3;
; 17968: 
; 17969:     /* "View.MemoryView":1115
; 17970:  * 
; 17971:  *     for i in range(ndim):
; 17972:  *         if mslice.shape[i] > 1:             # <<<<<<<<<<<<<<
; 17973:  *             f_stride = mslice.strides[i]
; 17974:  *             break
; 17975:  */
; 17976:     __pyx_t_2 = (((__pyx_v_mslice->shape[__pyx_v_i]) > 1) != 0);

	cmp	QWORD PTR [rax], 1

; 17977:     if (__pyx_t_2) {

	jg	SHORT $LN21@pyx_get_be
	inc	rcx
	inc	edx
	add	rax, 8
	cmp	rcx, rbx
	jl	SHORT $LL5@pyx_get_be
	jmp	SHORT $__pyx_L7_break$26307
$LN21@pyx_get_be:

; 17978: 
; 17979:       /* "View.MemoryView":1116
; 17980:  *     for i in range(ndim):
; 17981:  *         if mslice.shape[i] > 1:
; 17982:  *             f_stride = mslice.strides[i]             # <<<<<<<<<<<<<<
; 17983:  *             break
; 17984:  * 
; 17985:  */
; 17986:       __pyx_v_f_stride = (__pyx_v_mslice->strides[__pyx_v_i]);

	movsxd	rax, edx
	mov	r9, QWORD PTR [r11+rax*8+80]
$__pyx_L7_break$26307:

; 17987: 
; 17988:       /* "View.MemoryView":1117
; 17989:  *         if mslice.shape[i] > 1:
; 17990:  *             f_stride = mslice.strides[i]
; 17991:  *             break             # <<<<<<<<<<<<<<
; 17992:  * 
; 17993:  *     if abs_py_ssize_t(c_stride) <= abs_py_ssize_t(f_stride):
; 17994:  */
; 17995:       goto __pyx_L7_break;
; 17996: 
; 17997:       /* "View.MemoryView":1115
; 17998:  * 
; 17999:  *     for i in range(ndim):
; 18000:  *         if mslice.shape[i] > 1:             # <<<<<<<<<<<<<<
; 18001:  *             f_stride = mslice.strides[i]
; 18002:  *             break
; 18003:  */
; 18004:     }
; 18005:   }
; 18006:   __pyx_L7_break:;
; 18007: 
; 18008:   /* "View.MemoryView":1119
; 18009:  *             break
; 18010:  * 
; 18011:  *     if abs_py_ssize_t(c_stride) <= abs_py_ssize_t(f_stride):             # <<<<<<<<<<<<<<
; 18012:  *         return 'C'
; 18013:  *     else:
; 18014:  */
; 18015:   __pyx_t_2 = ((abs_py_ssize_t(__pyx_v_c_stride) <= abs_py_ssize_t(__pyx_v_f_stride)) != 0);

	test	r10, r10
	jns	SHORT $__pyx_L0$36353
	neg	r10
$__pyx_L0$36353:
	test	r9, r9
	jns	SHORT $__pyx_L0$36360
	neg	r9
$__pyx_L0$36360:

; 18016:   if (__pyx_t_2) {
; 18017: 
; 18018:     /* "View.MemoryView":1120
; 18019:  * 
; 18020:  *     if abs_py_ssize_t(c_stride) <= abs_py_ssize_t(f_stride):
; 18021:  *         return 'C'             # <<<<<<<<<<<<<<
; 18022:  *     else:
; 18023:  *         return 'F'
; 18024:  */
; 18025:     __pyx_r = 'C';
; 18026:     goto __pyx_L0;
; 18027: 
; 18028:     /* "View.MemoryView":1119
; 18029:  *             break
; 18030:  * 
; 18031:  *     if abs_py_ssize_t(c_stride) <= abs_py_ssize_t(f_stride):             # <<<<<<<<<<<<<<
; 18032:  *         return 'C'
; 18033:  *     else:
; 18034:  */
; 18035:   }
; 18036: 
; 18037:   /* "View.MemoryView":1122
; 18038:  *         return 'C'
; 18039:  *     else:
; 18040:  *         return 'F'             # <<<<<<<<<<<<<<
; 18041:  * 
; 18042:  * @cython.cdivision(True)
; 18043:  */
; 18044:   /*else*/ {
; 18045:     __pyx_r = 'F';
; 18046:     goto __pyx_L0;
; 18047:   }
; 18048: 
; 18049:   /* "View.MemoryView":1101
; 18050:  * 
; 18051:  * @cname('__pyx_get_best_slice_order')
; 18052:  * cdef char get_best_order(__Pyx_memviewslice *mslice, int ndim) nogil:             # <<<<<<<<<<<<<<
; 18053:  *     """
; 18054:  *     Figure out the best memory access order for a given slice.
; 18055:  */
; 18056: 
; 18057:   /* function exit code */
; 18058:   __pyx_L0:;
; 18059:   return __pyx_r;
; 18060: }

	mov	rbx, QWORD PTR [rsp+8]
	mov	eax, 70					; 00000046H
	mov	ecx, 67					; 00000043H
	cmp	r10, r9
$__pyx_L0$26309:
	cmovle	eax, ecx
	ret	0
__pyx_get_best_slice_order ENDP
_TEXT	ENDS
EXTRN	memcpy:PROC
;	COMDAT pdata
pdata	SEGMENT
$pdata$_copy_strided_to_strided DD imagerel _copy_strided_to_strided
	DD	imagerel _copy_strided_to_strided+411
	DD	imagerel $unwind$_copy_strided_to_strided
pdata	ENDS
;	COMDAT xdata
xdata	SEGMENT
$unwind$_copy_strided_to_strided DD 060c01H
	DD	0e340cH
	DD	07008920cH
	DD	050066007H
; Function compile flags: /Ogtpy
xdata	ENDS
;	COMDAT _copy_strided_to_strided
_TEXT	SEGMENT
tv215 = 64
__pyx_v_src_data$ = 112
__pyx_v_dst_stride$1$ = 120
__pyx_v_src_strides$ = 120
__pyx_v_dst_data$ = 128
tv216 = 136
__pyx_v_dst_strides$ = 136
tv217 = 144
__pyx_v_src_shape$ = 144
tv218 = 152
__pyx_v_src_stride$1$ = 152
__pyx_v_dst_shape$ = 152
tv219 = 160
__pyx_v_ndim$ = 160
__pyx_v_itemsize$ = 168
_copy_strided_to_strided PROC				; COMDAT

; 18070: static void _copy_strided_to_strided(char *__pyx_v_src_data, Py_ssize_t *__pyx_v_src_strides, char *__pyx_v_dst_data, Py_ssize_t *__pyx_v_dst_strides, Py_ssize_t *__pyx_v_src_shape, Py_ssize_t *__pyx_v_dst_shape, int __pyx_v_ndim, size_t __pyx_v_itemsize) {

	mov	QWORD PTR [rsp+8], rbx
	push	rbp
	push	rsi
	push	rdi
	sub	rsp, 80					; 00000050H

; 18071:   CYTHON_UNUSED Py_ssize_t __pyx_v_i;
; 18072:   CYTHON_UNUSED Py_ssize_t __pyx_v_src_extent;
; 18073:   Py_ssize_t __pyx_v_dst_extent;
; 18074:   Py_ssize_t __pyx_v_src_stride;
; 18075:   Py_ssize_t __pyx_v_dst_stride;
; 18076:   int __pyx_t_1;
; 18077:   int __pyx_t_2;
; 18078:   int __pyx_t_3;
; 18079:   Py_ssize_t __pyx_t_4;
; 18080:   Py_ssize_t __pyx_t_5;
; 18081: 
; 18082:   /* "View.MemoryView":1132
; 18083:  * 
; 18084:  *     cdef Py_ssize_t i
; 18085:  *     cdef Py_ssize_t src_extent = src_shape[0]             # <<<<<<<<<<<<<<
; 18086:  *     cdef Py_ssize_t dst_extent = dst_shape[0]
; 18087:  *     cdef Py_ssize_t src_stride = src_strides[0]
; 18088:  */
; 18089:   __pyx_v_src_extent = (__pyx_v_src_shape[0]);
; 18090: 
; 18091:   /* "View.MemoryView":1133
; 18092:  *     cdef Py_ssize_t i
; 18093:  *     cdef Py_ssize_t src_extent = src_shape[0]
; 18094:  *     cdef Py_ssize_t dst_extent = dst_shape[0]             # <<<<<<<<<<<<<<
; 18095:  *     cdef Py_ssize_t src_stride = src_strides[0]
; 18096:  *     cdef Py_ssize_t dst_stride = dst_strides[0]
; 18097:  */
; 18098:   __pyx_v_dst_extent = (__pyx_v_dst_shape[0]);

	mov	rax, QWORD PTR __pyx_v_dst_shape$[rsp]

; 18099: 
; 18100:   /* "View.MemoryView":1134
; 18101:  *     cdef Py_ssize_t src_extent = src_shape[0]
; 18102:  *     cdef Py_ssize_t dst_extent = dst_shape[0]
; 18103:  *     cdef Py_ssize_t src_stride = src_strides[0]             # <<<<<<<<<<<<<<
; 18104:  *     cdef Py_ssize_t dst_stride = dst_strides[0]
; 18105:  * 
; 18106:  */
; 18107:   __pyx_v_src_stride = (__pyx_v_src_strides[0]);

	mov	rbp, QWORD PTR [rdx]
	mov	rdi, rcx

; 18108: 
; 18109:   /* "View.MemoryView":1135
; 18110:  *     cdef Py_ssize_t dst_extent = dst_shape[0]
; 18111:  *     cdef Py_ssize_t src_stride = src_strides[0]
; 18112:  *     cdef Py_ssize_t dst_stride = dst_strides[0]             # <<<<<<<<<<<<<<
; 18113:  * 
; 18114:  *     if ndim == 1:
; 18115:  */
; 18116:   __pyx_v_dst_stride = (__pyx_v_dst_strides[0]);
; 18117: 
; 18118:   /* "View.MemoryView":1137
; 18119:  *     cdef Py_ssize_t dst_stride = dst_strides[0]
; 18120:  * 
; 18121:  *     if ndim == 1:             # <<<<<<<<<<<<<<
; 18122:  *        if (src_stride > 0 and dst_stride > 0 and
; 18123:  *            <size_t> src_stride == itemsize == <size_t> dst_stride):
; 18124:  */
; 18125:   __pyx_t_1 = ((__pyx_v_ndim == 1) != 0);

	mov	ecx, DWORD PTR __pyx_v_ndim$[rsp]
	mov	rsi, QWORD PTR [rax]
	mov	r10, rdx
	mov	rdx, QWORD PTR [r9]
	mov	rbx, r8
	mov	QWORD PTR __pyx_v_src_stride$1$[rsp], rbp
	mov	QWORD PTR __pyx_v_dst_stride$1$[rsp], rdx
	cmp	ecx, 1

; 18126:   if (__pyx_t_1) {

	jne	$LN13@copy_strid

; 18127: 
; 18128:     /* "View.MemoryView":1138
; 18129:  * 
; 18130:  *     if ndim == 1:
; 18131:  *        if (src_stride > 0 and dst_stride > 0 and             # <<<<<<<<<<<<<<
; 18132:  *            <size_t> src_stride == itemsize == <size_t> dst_stride):
; 18133:  *            memcpy(dst_data, src_data, itemsize * dst_extent)
; 18134:  */
; 18135:     __pyx_t_2 = ((__pyx_v_src_stride > 0) != 0);

	xor	ecx, ecx
	test	rbp, rbp

; 18136:     if (__pyx_t_2) {

	mov	rbp, QWORD PTR __pyx_v_itemsize$[rsp]
	mov	eax, ecx
	setg	al
	test	eax, eax
	je	SHORT $LN7@copy_strid

; 18137:     } else {
; 18138:       __pyx_t_1 = __pyx_t_2;
; 18139:       goto __pyx_L5_bool_binop_done;
; 18140:     }
; 18141:     __pyx_t_2 = ((__pyx_v_dst_stride > 0) != 0);

	test	rdx, rdx
	mov	eax, ecx
	setg	al

; 18142:     if (__pyx_t_2) {

	test	eax, eax
	je	SHORT $LN7@copy_strid

; 18143:     } else {
; 18144:       __pyx_t_1 = __pyx_t_2;
; 18145:       goto __pyx_L5_bool_binop_done;
; 18146:     }
; 18147: 
; 18148:     /* "View.MemoryView":1139
; 18149:  *     if ndim == 1:
; 18150:  *        if (src_stride > 0 and dst_stride > 0 and
; 18151:  *            <size_t> src_stride == itemsize == <size_t> dst_stride):             # <<<<<<<<<<<<<<
; 18152:  *            memcpy(dst_data, src_data, itemsize * dst_extent)
; 18153:  *        else:
; 18154:  */
; 18155:     __pyx_t_2 = (((size_t)__pyx_v_src_stride) == __pyx_v_itemsize);

	cmp	QWORD PTR __pyx_v_src_stride$1$[rsp], rbp
	mov	eax, ecx
	sete	al

; 18156:     if (__pyx_t_2) {

	test	eax, eax
	je	SHORT $LN20@copy_strid

; 18157:       __pyx_t_2 = (__pyx_v_itemsize == ((size_t)__pyx_v_dst_stride));

	cmp	rbp, rdx
	mov	eax, ecx
	sete	al

; 18158:     }
; 18159:     __pyx_t_3 = (__pyx_t_2 != 0);

	test	eax, eax
$LN20@copy_strid:
	setne	cl
$__pyx_L5_bool_binop_done$26340:

; 18160:     __pyx_t_1 = __pyx_t_3;
; 18161:     __pyx_L5_bool_binop_done:;
; 18162: 
; 18163:     /* "View.MemoryView":1138
; 18164:  * 
; 18165:  *     if ndim == 1:
; 18166:  *        if (src_stride > 0 and dst_stride > 0 and             # <<<<<<<<<<<<<<
; 18167:  *            <size_t> src_stride == itemsize == <size_t> dst_stride):
; 18168:  *            memcpy(dst_data, src_data, itemsize * dst_extent)
; 18169:  */
; 18170:     if (__pyx_t_1) {

	test	ecx, ecx
	je	SHORT $LN7@copy_strid

; 18171: 
; 18172:       /* "View.MemoryView":1140
; 18173:  *        if (src_stride > 0 and dst_stride > 0 and
; 18174:  *            <size_t> src_stride == itemsize == <size_t> dst_stride):
; 18175:  *            memcpy(dst_data, src_data, itemsize * dst_extent)             # <<<<<<<<<<<<<<
; 18176:  *        else:
; 18177:  *            for i in range(dst_extent):
; 18178:  */
; 18179:       memcpy(__pyx_v_dst_data, __pyx_v_src_data, (__pyx_v_itemsize * __pyx_v_dst_extent));

	imul	rsi, rbp
	mov	rdx, rdi
	mov	rcx, rbx
	mov	r8, rsi

; 18281:     }
; 18282:   }
; 18283:   __pyx_L3:;
; 18284: 
; 18285:   /* "View.MemoryView":1125
; 18286:  * 
; 18287:  * @cython.cdivision(True)
; 18288:  * cdef void _copy_strided_to_strided(char *src_data, Py_ssize_t *src_strides,             # <<<<<<<<<<<<<<
; 18289:  *                                    char *dst_data, Py_ssize_t *dst_strides,
; 18290:  *                                    Py_ssize_t *src_shape, Py_ssize_t *dst_shape,
; 18291:  */
; 18292: 
; 18293:   /* function exit code */
; 18294: }

	mov	rbx, QWORD PTR [rsp+112]
	add	rsp, 80					; 00000050H
	pop	rdi
	pop	rsi
	pop	rbp
	jmp	memcpy
$LN7@copy_strid:

; 18180: 
; 18181:       /* "View.MemoryView":1138
; 18182:  * 
; 18183:  *     if ndim == 1:
; 18184:  *        if (src_stride > 0 and dst_stride > 0 and             # <<<<<<<<<<<<<<
; 18185:  *            <size_t> src_stride == itemsize == <size_t> dst_stride):
; 18186:  *            memcpy(dst_data, src_data, itemsize * dst_extent)
; 18187:  */
; 18188:       goto __pyx_L4;
; 18189:     }
; 18190: 
; 18191:     /* "View.MemoryView":1142
; 18192:  *            memcpy(dst_data, src_data, itemsize * dst_extent)
; 18193:  *        else:
; 18194:  *            for i in range(dst_extent):             # <<<<<<<<<<<<<<
; 18195:  *                memcpy(dst_data, src_data, itemsize)
; 18196:  *                src_data += src_stride
; 18197:  */
; 18198:     /*else*/ {
; 18199:       __pyx_t_4 = __pyx_v_dst_extent;
; 18200:       for (__pyx_t_5 = 0; __pyx_t_5 < __pyx_t_4; __pyx_t_5+=1) {

	test	rsi, rsi
	jle	$__pyx_L3$26351
	npad	2
$LL6@copy_strid:

; 18201:         __pyx_v_i = __pyx_t_5;
; 18202: 
; 18203:         /* "View.MemoryView":1143
; 18204:  *        else:
; 18205:  *            for i in range(dst_extent):
; 18206:  *                memcpy(dst_data, src_data, itemsize)             # <<<<<<<<<<<<<<
; 18207:  *                src_data += src_stride
; 18208:  *                dst_data += dst_stride
; 18209:  */
; 18210:         memcpy(__pyx_v_dst_data, __pyx_v_src_data, __pyx_v_itemsize);

	mov	r8, rbp
	mov	rdx, rdi
	mov	rcx, rbx
	call	memcpy

; 18211: 
; 18212:         /* "View.MemoryView":1144
; 18213:  *            for i in range(dst_extent):
; 18214:  *                memcpy(dst_data, src_data, itemsize)
; 18215:  *                src_data += src_stride             # <<<<<<<<<<<<<<
; 18216:  *                dst_data += dst_stride
; 18217:  *     else:
; 18218:  */
; 18219:         __pyx_v_src_data = (__pyx_v_src_data + __pyx_v_src_stride);

	add	rdi, QWORD PTR __pyx_v_src_stride$1$[rsp]

; 18220: 
; 18221:         /* "View.MemoryView":1145
; 18222:  *                memcpy(dst_data, src_data, itemsize)
; 18223:  *                src_data += src_stride
; 18224:  *                dst_data += dst_stride             # <<<<<<<<<<<<<<
; 18225:  *     else:
; 18226:  *         for i in range(dst_extent):
; 18227:  */
; 18228:         __pyx_v_dst_data = (__pyx_v_dst_data + __pyx_v_dst_stride);

	add	rbx, QWORD PTR __pyx_v_dst_stride$1$[rsp]
	sub	rsi, 1
	jne	SHORT $LL6@copy_strid
$__pyx_L4$26347:

; 18281:     }
; 18282:   }
; 18283:   __pyx_L3:;
; 18284: 
; 18285:   /* "View.MemoryView":1125
; 18286:  * 
; 18287:  * @cython.cdivision(True)
; 18288:  * cdef void _copy_strided_to_strided(char *src_data, Py_ssize_t *src_strides,             # <<<<<<<<<<<<<<
; 18289:  *                                    char *dst_data, Py_ssize_t *dst_strides,
; 18290:  *                                    Py_ssize_t *src_shape, Py_ssize_t *dst_shape,
; 18291:  */
; 18292: 
; 18293:   /* function exit code */
; 18294: }

	mov	rbx, QWORD PTR [rsp+112]
	add	rsp, 80					; 00000050H
	pop	rdi
	pop	rsi
	pop	rbp
	ret	0
$LN13@copy_strid:

; 18229:       }
; 18230:     }
; 18231:     __pyx_L4:;
; 18232: 
; 18233:     /* "View.MemoryView":1137
; 18234:  *     cdef Py_ssize_t dst_stride = dst_strides[0]
; 18235:  * 
; 18236:  *     if ndim == 1:             # <<<<<<<<<<<<<<
; 18237:  *        if (src_stride > 0 and dst_stride > 0 and
; 18238:  *            <size_t> src_stride == itemsize == <size_t> dst_stride):
; 18239:  */
; 18240:     goto __pyx_L3;
; 18241:   }
; 18242: 
; 18243:   /* "View.MemoryView":1147
; 18244:  *                dst_data += dst_stride
; 18245:  *     else:
; 18246:  *         for i in range(dst_extent):             # <<<<<<<<<<<<<<
; 18247:  *             _copy_strided_to_strided(src_data, src_strides + 1,
; 18248:  *                                      dst_data, dst_strides + 1,
; 18249:  */
; 18250:   /*else*/ {
; 18251:     __pyx_t_4 = __pyx_v_dst_extent;
; 18252:     for (__pyx_t_5 = 0; __pyx_t_5 < __pyx_t_4; __pyx_t_5+=1) {

	test	rsi, rsi
	jle	$__pyx_L3$26351
	lea	rdx, QWORD PTR [rax+8]

; 18253:       __pyx_v_i = __pyx_t_5;
; 18254: 
; 18255:       /* "View.MemoryView":1148
; 18256:  *     else:
; 18257:  *         for i in range(dst_extent):
; 18258:  *             _copy_strided_to_strided(src_data, src_strides + 1,             # <<<<<<<<<<<<<<
; 18259:  *                                      dst_data, dst_strides + 1,
; 18260:  *                                      src_shape + 1, dst_shape + 1,
; 18261:  */
; 18262:       _copy_strided_to_strided(__pyx_v_src_data, (__pyx_v_src_strides + 1), __pyx_v_dst_data, (__pyx_v_dst_strides + 1), (__pyx_v_src_shape + 1), (__pyx_v_dst_shape + 1), (__pyx_v_ndim - 1), __pyx_v_itemsize);

	mov	rax, QWORD PTR __pyx_v_src_shape$[rsp]
	dec	ecx
	add	rax, 8
	lea	r8, QWORD PTR [r9+8]
	add	r10, 8
	mov	DWORD PTR tv219[rsp], ecx
	mov	QWORD PTR tv218[rsp], rdx
	mov	QWORD PTR tv215[rsp], r10
	mov	QWORD PTR tv217[rsp], rax
	mov	QWORD PTR tv216[rsp], r8
	npad	11
$LL3@copy_strid:
	mov	r9, QWORD PTR __pyx_v_itemsize$[rsp]
	mov	QWORD PTR [rsp+56], r9
	mov	DWORD PTR [rsp+48], ecx
	mov	QWORD PTR [rsp+40], rdx
	mov	r9, r8
	mov	rdx, r10
	mov	rcx, rdi
	mov	r8, rbx
	mov	QWORD PTR [rsp+32], rax
	call	_copy_strided_to_strided

; 18263: 
; 18264:       /* "View.MemoryView":1152
; 18265:  *                                      src_shape + 1, dst_shape + 1,
; 18266:  *                                      ndim - 1, itemsize)
; 18267:  *             src_data += src_stride             # <<<<<<<<<<<<<<
; 18268:  *             dst_data += dst_stride
; 18269:  * 
; 18270:  */
; 18271:       __pyx_v_src_data = (__pyx_v_src_data + __pyx_v_src_stride);
; 18272: 
; 18273:       /* "View.MemoryView":1153
; 18274:  *                                      ndim - 1, itemsize)
; 18275:  *             src_data += src_stride
; 18276:  *             dst_data += dst_stride             # <<<<<<<<<<<<<<
; 18277:  * 
; 18278:  * cdef void copy_strided_to_strided(__Pyx_memviewslice *src,
; 18279:  */
; 18280:       __pyx_v_dst_data = (__pyx_v_dst_data + __pyx_v_dst_stride);

	add	rbx, QWORD PTR __pyx_v_dst_stride$1$[rsp]
	mov	ecx, DWORD PTR tv219[rsp]
	mov	rdx, QWORD PTR tv218[rsp]
	mov	rax, QWORD PTR tv217[rsp]
	mov	r8, QWORD PTR tv216[rsp]
	mov	r10, QWORD PTR tv215[rsp]
	add	rdi, rbp
	sub	rsi, 1
	jne	SHORT $LL3@copy_strid
$__pyx_L3$26351:

; 18281:     }
; 18282:   }
; 18283:   __pyx_L3:;
; 18284: 
; 18285:   /* "View.MemoryView":1125
; 18286:  * 
; 18287:  * @cython.cdivision(True)
; 18288:  * cdef void _copy_strided_to_strided(char *src_data, Py_ssize_t *src_strides,             # <<<<<<<<<<<<<<
; 18289:  *                                    char *dst_data, Py_ssize_t *dst_strides,
; 18290:  *                                    Py_ssize_t *src_shape, Py_ssize_t *dst_shape,
; 18291:  */
; 18292: 
; 18293:   /* function exit code */
; 18294: }

	mov	rbx, QWORD PTR [rsp+112]
	add	rsp, 80					; 00000050H
	pop	rdi
	pop	rsi
	pop	rbp
	ret	0
_copy_strided_to_strided ENDP
_TEXT	ENDS
;	COMDAT pdata
pdata	SEGMENT
$pdata$copy_strided_to_strided DD imagerel copy_strided_to_strided
	DD	imagerel copy_strided_to_strided+67
	DD	imagerel $unwind$copy_strided_to_strided
pdata	ENDS
;	COMDAT xdata
xdata	SEGMENT
$unwind$copy_strided_to_strided DD 020601H
	DD	030027206H
; Function compile flags: /Ogtpy
xdata	ENDS
;	COMDAT copy_strided_to_strided
_TEXT	SEGMENT
__pyx_v_src$ = 80
__pyx_v_dst$ = 88
__pyx_v_ndim$ = 96
__pyx_v_itemsize$ = 104
copy_strided_to_strided PROC				; COMDAT

; 18304: static void copy_strided_to_strided(__Pyx_memviewslice *__pyx_v_src, __Pyx_memviewslice *__pyx_v_dst, int __pyx_v_ndim, size_t __pyx_v_itemsize) {

	push	rbx
	sub	rsp, 64					; 00000040H
	mov	r11, r9
	mov	rbx, rdx

; 18305: 
; 18306:   /* "View.MemoryView":1158
; 18307:  *                                   __Pyx_memviewslice *dst,
; 18308:  *                                   int ndim, size_t itemsize) nogil:
; 18309:  *     _copy_strided_to_strided(src.data, src.strides, dst.data, dst.strides,             # <<<<<<<<<<<<<<
; 18310:  *                              src.shape, dst.shape, ndim, itemsize)
; 18311:  * 
; 18312:  */
; 18313:   _copy_strided_to_strided(__pyx_v_src->data, __pyx_v_src->strides, __pyx_v_dst->data, __pyx_v_dst->strides, __pyx_v_src->shape, __pyx_v_dst->shape, __pyx_v_ndim, __pyx_v_itemsize);

	lea	rax, QWORD PTR [rdx+16]
	mov	QWORD PTR [rsp+56], r11
	mov	DWORD PTR [rsp+48], r8d
	mov	r8, QWORD PTR [rbx+8]
	lea	r10, QWORD PTR [rcx+16]
	lea	r9, QWORD PTR [rdx+80]
	lea	rdx, QWORD PTR [rcx+80]
	mov	rcx, QWORD PTR [rcx+8]
	mov	QWORD PTR [rsp+40], rax
	mov	QWORD PTR [rsp+32], r10
	call	_copy_strided_to_strided

; 18314: 
; 18315:   /* "View.MemoryView":1155
; 18316:  *             dst_data += dst_stride
; 18317:  * 
; 18318:  * cdef void copy_strided_to_strided(__Pyx_memviewslice *src,             # <<<<<<<<<<<<<<
; 18319:  *                                   __Pyx_memviewslice *dst,
; 18320:  *                                   int ndim, size_t itemsize) nogil:
; 18321:  */
; 18322: 
; 18323:   /* function exit code */
; 18324: }

	add	rsp, 64					; 00000040H
	pop	rbx
	ret	0
copy_strided_to_strided ENDP
; Function compile flags: /Ogtpy
_TEXT	ENDS
;	COMDAT __pyx_memoryview_slice_get_size
_TEXT	SEGMENT
__pyx_v_src$ = 8
__pyx_v_ndim$ = 16
__pyx_memoryview_slice_get_size PROC			; COMDAT

; 18350:   __pyx_v_size = __pyx_t_1;

	mov	rax, QWORD PTR [rcx]
	movsxd	r8, edx
	mov	rax, QWORD PTR [rax+96]

; 18351: 
; 18352:   /* "View.MemoryView":1167
; 18353:  *     cdef Py_ssize_t size = src.memview.view.itemsize
; 18354:  * 
; 18355:  *     for i in range(ndim):             # <<<<<<<<<<<<<<
; 18356:  *         size *= src.shape[i]
; 18357:  * 
; 18358:  */
; 18359:   __pyx_t_2 = __pyx_v_ndim;
; 18360:   for (__pyx_t_3 = 0; __pyx_t_3 < __pyx_t_2; __pyx_t_3+=1) {

	test	edx, edx
	jle	SHORT $LN8@pyx_memory@4

; 18335:   int __pyx_v_i;
; 18336:   Py_ssize_t __pyx_v_size;
; 18337:   Py_ssize_t __pyx_r;
; 18338:   Py_ssize_t __pyx_t_1;
; 18339:   int __pyx_t_2;
; 18340:   int __pyx_t_3;
; 18341: 
; 18342:   /* "View.MemoryView":1165
; 18343:  *     "Return the size of the memory occupied by the slice in number of bytes"
; 18344:  *     cdef int i
; 18345:  *     cdef Py_ssize_t size = src.memview.view.itemsize             # <<<<<<<<<<<<<<
; 18346:  * 
; 18347:  *     for i in range(ndim):
; 18348:  */
; 18349:   __pyx_t_1 = __pyx_v_src->memview->view.itemsize;

	add	rcx, 16
$LL3@pyx_memory@4:

; 18361:     __pyx_v_i = __pyx_t_3;
; 18362: 
; 18363:     /* "View.MemoryView":1168
; 18364:  * 
; 18365:  *     for i in range(ndim):
; 18366:  *         size *= src.shape[i]             # <<<<<<<<<<<<<<
; 18367:  * 
; 18368:  *     return size
; 18369:  */
; 18370:     __pyx_v_size = (__pyx_v_size * (__pyx_v_src->shape[__pyx_v_i]));

	imul	rax, QWORD PTR [rcx]
	add	rcx, 8
	sub	r8, 1
	jne	SHORT $LL3@pyx_memory@4
$__pyx_L0$26378:
$LN8@pyx_memory@4:
$__pyx_L0_1$26378:

; 18371:   }
; 18372: 
; 18373:   /* "View.MemoryView":1170
; 18374:  *         size *= src.shape[i]
; 18375:  * 
; 18376:  *     return size             # <<<<<<<<<<<<<<
; 18377:  * 
; 18378:  * @cname('__pyx_fill_contig_strides_array')
; 18379:  */
; 18380:   __pyx_r = __pyx_v_size;
; 18381:   goto __pyx_L0;
; 18382: 
; 18383:   /* "View.MemoryView":1162
; 18384:  * 
; 18385:  * @cname('__pyx_memoryview_slice_get_size')
; 18386:  * cdef Py_ssize_t slice_get_size(__Pyx_memviewslice *src, int ndim) nogil:             # <<<<<<<<<<<<<<
; 18387:  *     "Return the size of the memory occupied by the slice in number of bytes"
; 18388:  *     cdef int i
; 18389:  */
; 18390: 
; 18391:   /* function exit code */
; 18392:   __pyx_L0:;
; 18393:   return __pyx_r;
; 18394: }

	fatret	0
__pyx_memoryview_slice_get_size ENDP
; Function compile flags: /Ogtpy
_TEXT	ENDS
;	COMDAT __pyx_fill_contig_strides_array
_TEXT	SEGMENT
__pyx_v_shape$ = 8
__pyx_v_strides$ = 16
__pyx_v_stride$ = 24
__pyx_v_ndim$ = 32
__pyx_v_order$ = 40
__pyx_fill_contig_strides_array PROC			; COMDAT

; 18405:   int __pyx_v_idx;
; 18406:   Py_ssize_t __pyx_r;
; 18407:   int __pyx_t_1;
; 18408:   int __pyx_t_2;
; 18409:   int __pyx_t_3;
; 18410: 
; 18411:   /* "View.MemoryView":1182
; 18412:  *     cdef int idx
; 18413:  * 
; 18414:  *     if order == 'F':             # <<<<<<<<<<<<<<
; 18415:  *         for idx in range(ndim):
; 18416:  *             strides[idx] = stride
; 18417:  */
; 18418:   __pyx_t_1 = ((__pyx_v_order == 'F') != 0);

	cmp	BYTE PTR __pyx_v_order$[rsp], 70	; 00000046H
	mov	r10, rdx

; 18419:   if (__pyx_t_1) {

	jne	SHORT $LN7@pyx_fill_c

; 18420: 
; 18421:     /* "View.MemoryView":1183
; 18422:  * 
; 18423:  *     if order == 'F':
; 18424:  *         for idx in range(ndim):             # <<<<<<<<<<<<<<
; 18425:  *             strides[idx] = stride
; 18426:  *             stride = stride * shape[idx]
; 18427:  */
; 18428:     __pyx_t_2 = __pyx_v_ndim;
; 18429:     for (__pyx_t_3 = 0; __pyx_t_3 < __pyx_t_2; __pyx_t_3+=1) {

	movsxd	rax, r9d
	test	r9d, r9d
	jle	SHORT $LN14@pyx_fill_c
	sub	r10, rcx
	npad	11
$LL6@pyx_fill_c:

; 18430:       __pyx_v_idx = __pyx_t_3;
; 18431: 
; 18432:       /* "View.MemoryView":1184
; 18433:  *     if order == 'F':
; 18434:  *         for idx in range(ndim):
; 18435:  *             strides[idx] = stride             # <<<<<<<<<<<<<<
; 18436:  *             stride = stride * shape[idx]
; 18437:  *     else:
; 18438:  */
; 18439:       (__pyx_v_strides[__pyx_v_idx]) = __pyx_v_stride;

	mov	QWORD PTR [r10+rcx], r8

; 18440: 
; 18441:       /* "View.MemoryView":1185
; 18442:  *         for idx in range(ndim):
; 18443:  *             strides[idx] = stride
; 18444:  *             stride = stride * shape[idx]             # <<<<<<<<<<<<<<
; 18445:  *     else:
; 18446:  *         for idx in range(ndim - 1, -1, -1):
; 18447:  */
; 18448:       __pyx_v_stride = (__pyx_v_stride * (__pyx_v_shape[__pyx_v_idx]));

	imul	r8, QWORD PTR [rcx]
	add	rcx, 8
	sub	rax, 1
	jne	SHORT $LL6@pyx_fill_c
$__pyx_L0$26403:
$__pyx_L0_1$26403:

; 18489:     }
; 18490:   }
; 18491:   __pyx_L3:;
; 18492: 
; 18493:   /* "View.MemoryView":1191
; 18494:  *             stride = stride * shape[idx]
; 18495:  * 
; 18496:  *     return stride             # <<<<<<<<<<<<<<
; 18497:  * 
; 18498:  * @cname('__pyx_memoryview_copy_data_to_temp')
; 18499:  */
; 18500:   __pyx_r = __pyx_v_stride;
; 18501:   goto __pyx_L0;
; 18502: 
; 18503:   /* "View.MemoryView":1173
; 18504:  * 
; 18505:  * @cname('__pyx_fill_contig_strides_array')
; 18506:  * cdef Py_ssize_t fill_contig_strides_array(             # <<<<<<<<<<<<<<
; 18507:  *                 Py_ssize_t *shape, Py_ssize_t *strides, Py_ssize_t stride,
; 18508:  *                 int ndim, char order) nogil:
; 18509:  */
; 18510: 
; 18511:   /* function exit code */
; 18512:   __pyx_L0:;
; 18513:   return __pyx_r;

	mov	rax, r8
$__pyx_L3$26399:

; 18514: }

	ret	0
$LN7@pyx_fill_c:

; 18449:     }
; 18450: 
; 18451:     /* "View.MemoryView":1182
; 18452:  *     cdef int idx
; 18453:  * 
; 18454:  *     if order == 'F':             # <<<<<<<<<<<<<<
; 18455:  *         for idx in range(ndim):
; 18456:  *             strides[idx] = stride
; 18457:  */
; 18458:     goto __pyx_L3;
; 18459:   }
; 18460: 
; 18461:   /* "View.MemoryView":1187
; 18462:  *             stride = stride * shape[idx]
; 18463:  *     else:
; 18464:  *         for idx in range(ndim - 1, -1, -1):             # <<<<<<<<<<<<<<
; 18465:  *             strides[idx] = stride
; 18466:  *             stride = stride * shape[idx]
; 18467:  */
; 18468:   /*else*/ {
; 18469:     for (__pyx_t_2 = (__pyx_v_ndim - 1); __pyx_t_2 > -1L; __pyx_t_2-=1) {

	lea	eax, DWORD PTR [r9-1]
	cmp	eax, -1
	movsxd	rdx, eax
	jle	SHORT $LN14@pyx_fill_c
	lea	rdx, QWORD PTR [rcx+rdx*8]
	sub	r10, rcx
	lea	ecx, DWORD PTR [rax+1]
	npad	4
$LL3@pyx_fill_c:

; 18470:       __pyx_v_idx = __pyx_t_2;
; 18471: 
; 18472:       /* "View.MemoryView":1188
; 18473:  *     else:
; 18474:  *         for idx in range(ndim - 1, -1, -1):
; 18475:  *             strides[idx] = stride             # <<<<<<<<<<<<<<
; 18476:  *             stride = stride * shape[idx]
; 18477:  * 
; 18478:  */
; 18479:       (__pyx_v_strides[__pyx_v_idx]) = __pyx_v_stride;

	mov	QWORD PTR [rdx+r10], r8

; 18480: 
; 18481:       /* "View.MemoryView":1189
; 18482:  *         for idx in range(ndim - 1, -1, -1):
; 18483:  *             strides[idx] = stride
; 18484:  *             stride = stride * shape[idx]             # <<<<<<<<<<<<<<
; 18485:  * 
; 18486:  *     return stride
; 18487:  */
; 18488:       __pyx_v_stride = (__pyx_v_stride * (__pyx_v_shape[__pyx_v_idx]));

	imul	r8, QWORD PTR [rdx]
	sub	rdx, 8
	sub	rcx, 1
	jne	SHORT $LL3@pyx_fill_c
$__pyx_L0_2$26403:
$LN14@pyx_fill_c:
$__pyx_L0_3$26403:
$__pyx_L0_4$26403:

; 18489:     }
; 18490:   }
; 18491:   __pyx_L3:;
; 18492: 
; 18493:   /* "View.MemoryView":1191
; 18494:  *             stride = stride * shape[idx]
; 18495:  * 
; 18496:  *     return stride             # <<<<<<<<<<<<<<
; 18497:  * 
; 18498:  * @cname('__pyx_memoryview_copy_data_to_temp')
; 18499:  */
; 18500:   __pyx_r = __pyx_v_stride;
; 18501:   goto __pyx_L0;
; 18502: 
; 18503:   /* "View.MemoryView":1173
; 18504:  * 
; 18505:  * @cname('__pyx_fill_contig_strides_array')
; 18506:  * cdef Py_ssize_t fill_contig_strides_array(             # <<<<<<<<<<<<<<
; 18507:  *                 Py_ssize_t *shape, Py_ssize_t *strides, Py_ssize_t stride,
; 18508:  *                 int ndim, char order) nogil:
; 18509:  */
; 18510: 
; 18511:   /* function exit code */
; 18512:   __pyx_L0:;
; 18513:   return __pyx_r;

	mov	rax, r8
$__pyx_L3_5$26399:

; 18514: }

	ret	0
__pyx_fill_contig_strides_array ENDP
; Function compile flags: /Ogtpy
_TEXT	ENDS
;	COMDAT __pyx_memoryview_broadcast_leading
_TEXT	SEGMENT
__pyx_v_mslice$ = 8
__pyx_v_ndim$ = 16
__pyx_v_ndim_other$ = 24
__pyx_memoryview_broadcast_leading PROC			; COMDAT

; 19690:   int __pyx_v_i;
; 19691:   int __pyx_v_offset;
; 19692:   int __pyx_t_1;
; 19693:   int __pyx_t_2;
; 19694: 
; 19695:   /* "View.MemoryView":1330
; 19696:  *                             int ndim_other) nogil:
; 19697:  *     cdef int i
; 19698:  *     cdef int offset = ndim_other - ndim             # <<<<<<<<<<<<<<
; 19699:  * 
; 19700:  *     for i in range(ndim - 1, -1, -1):
; 19701:  */
; 19702:   __pyx_v_offset = (__pyx_v_ndim_other - __pyx_v_ndim);
; 19703: 
; 19704:   /* "View.MemoryView":1332
; 19705:  *     cdef int offset = ndim_other - ndim
; 19706:  * 
; 19707:  *     for i in range(ndim - 1, -1, -1):             # <<<<<<<<<<<<<<
; 19708:  *         mslice.shape[i + offset] = mslice.shape[i]
; 19709:  *         mslice.strides[i + offset] = mslice.strides[i]
; 19710:  */
; 19711:   for (__pyx_t_1 = (__pyx_v_ndim - 1); __pyx_t_1 > -1L; __pyx_t_1-=1) {

	lea	r11d, DWORD PTR [rdx-1]
	sub	r8d, edx
	mov	r10, rcx
	cmp	r11d, -1
	movsxd	rcx, r11d
	movsxd	r9, r8d
	jle	SHORT $LN4@pyx_memory@5
	lea	rax, QWORD PTR [rcx+r9]
	lea	r8, QWORD PTR [r10+rcx*8+80]
	lea	ecx, DWORD PTR [r11+1]
	lea	rdx, QWORD PTR [r10+rax*8+80]
	npad	8
$LL6@pyx_memory@5:

; 19712:     __pyx_v_i = __pyx_t_1;
; 19713: 
; 19714:     /* "View.MemoryView":1333
; 19715:  * 
; 19716:  *     for i in range(ndim - 1, -1, -1):
; 19717:  *         mslice.shape[i + offset] = mslice.shape[i]             # <<<<<<<<<<<<<<
; 19718:  *         mslice.strides[i + offset] = mslice.strides[i]
; 19719:  *         mslice.suboffsets[i + offset] = mslice.suboffsets[i]
; 19720:  */
; 19721:     (__pyx_v_mslice->shape[(__pyx_v_i + __pyx_v_offset)]) = (__pyx_v_mslice->shape[__pyx_v_i]);

	mov	rax, QWORD PTR [r8-64]
	sub	rdx, 8
	sub	r8, 8
	sub	rcx, 1
	mov	QWORD PTR [rdx-56], rax

; 19722: 
; 19723:     /* "View.MemoryView":1334
; 19724:  *     for i in range(ndim - 1, -1, -1):
; 19725:  *         mslice.shape[i + offset] = mslice.shape[i]
; 19726:  *         mslice.strides[i + offset] = mslice.strides[i]             # <<<<<<<<<<<<<<
; 19727:  *         mslice.suboffsets[i + offset] = mslice.suboffsets[i]
; 19728:  * 
; 19729:  */
; 19730:     (__pyx_v_mslice->strides[(__pyx_v_i + __pyx_v_offset)]) = (__pyx_v_mslice->strides[__pyx_v_i]);

	mov	rax, QWORD PTR [r8+8]
	mov	QWORD PTR [rdx+8], rax

; 19731: 
; 19732:     /* "View.MemoryView":1335
; 19733:  *         mslice.shape[i + offset] = mslice.shape[i]
; 19734:  *         mslice.strides[i + offset] = mslice.strides[i]
; 19735:  *         mslice.suboffsets[i + offset] = mslice.suboffsets[i]             # <<<<<<<<<<<<<<
; 19736:  * 
; 19737:  *     for i in range(offset):
; 19738:  */
; 19739:     (__pyx_v_mslice->suboffsets[(__pyx_v_i + __pyx_v_offset)]) = (__pyx_v_mslice->suboffsets[__pyx_v_i]);

	mov	rax, QWORD PTR [r8+72]
	mov	QWORD PTR [rdx+72], rax
	jne	SHORT $LL6@pyx_memory@5
$LN4@pyx_memory@5:

; 19740:   }
; 19741: 
; 19742:   /* "View.MemoryView":1337
; 19743:  *         mslice.suboffsets[i + offset] = mslice.suboffsets[i]
; 19744:  * 
; 19745:  *     for i in range(offset):             # <<<<<<<<<<<<<<
; 19746:  *         mslice.shape[i] = 1
; 19747:  *         mslice.strides[i] = mslice.strides[0]
; 19748:  */
; 19749:   __pyx_t_1 = __pyx_v_offset;
; 19750:   for (__pyx_t_2 = 0; __pyx_t_2 < __pyx_t_1; __pyx_t_2+=1) {

	test	r9, r9
	jle	SHORT $LN1@pyx_memory@5
	lea	rcx, QWORD PTR [r10+80]
	npad	1
$LL3@pyx_memory@5:

; 19751:     __pyx_v_i = __pyx_t_2;
; 19752: 
; 19753:     /* "View.MemoryView":1338
; 19754:  * 
; 19755:  *     for i in range(offset):
; 19756:  *         mslice.shape[i] = 1             # <<<<<<<<<<<<<<
; 19757:  *         mslice.strides[i] = mslice.strides[0]
; 19758:  *         mslice.suboffsets[i] = -1
; 19759:  */
; 19760:     (__pyx_v_mslice->shape[__pyx_v_i]) = 1;

	mov	QWORD PTR [rcx-64], 1

; 19761: 
; 19762:     /* "View.MemoryView":1339
; 19763:  *     for i in range(offset):
; 19764:  *         mslice.shape[i] = 1
; 19765:  *         mslice.strides[i] = mslice.strides[0]             # <<<<<<<<<<<<<<
; 19766:  *         mslice.suboffsets[i] = -1
; 19767:  * 
; 19768:  */
; 19769:     (__pyx_v_mslice->strides[__pyx_v_i]) = (__pyx_v_mslice->strides[0]);

	mov	rax, QWORD PTR [r10+80]

; 19770: 
; 19771:     /* "View.MemoryView":1340
; 19772:  *         mslice.shape[i] = 1
; 19773:  *         mslice.strides[i] = mslice.strides[0]
; 19774:  *         mslice.suboffsets[i] = -1             # <<<<<<<<<<<<<<
; 19775:  * 
; 19776:  * 
; 19777:  */
; 19778:     (__pyx_v_mslice->suboffsets[__pyx_v_i]) = -1L;

	mov	QWORD PTR [rcx+64], -1
	mov	QWORD PTR [rcx], rax
	add	rcx, 8
	sub	r9, 1
	jne	SHORT $LL3@pyx_memory@5
$LN1@pyx_memory@5:

; 19779:   }
; 19780: 
; 19781:   /* "View.MemoryView":1326
; 19782:  * 
; 19783:  * @cname('__pyx_memoryview_broadcast_leading')
; 19784:  * cdef void broadcast_leading(__Pyx_memviewslice *mslice,             # <<<<<<<<<<<<<<
; 19785:  *                             int ndim,
; 19786:  *                             int ndim_other) nogil:
; 19787:  */
; 19788: 
; 19789:   /* function exit code */
; 19790: }

	fatret	0
__pyx_memoryview_broadcast_leading ENDP
_TEXT	ENDS
;	COMDAT pdata
pdata	SEGMENT
$pdata$__pyx_memoryview_refcount_objects_in_slice DD imagerel __pyx_memoryview_refcount_objects_in_slice
	DD	imagerel __pyx_memoryview_refcount_objects_in_slice+34
	DD	imagerel $unwind$__pyx_memoryview_refcount_objects_in_slice
pdata	ENDS
;	COMDAT pdata
pdata	SEGMENT
$pdata$0$__pyx_memoryview_refcount_objects_in_slice DD imagerel __pyx_memoryview_refcount_objects_in_slice+34
	DD	imagerel __pyx_memoryview_refcount_objects_in_slice+142
	DD	imagerel $chain$0$__pyx_memoryview_refcount_objects_in_slice
pdata	ENDS
;	COMDAT pdata
pdata	SEGMENT
$pdata$1$__pyx_memoryview_refcount_objects_in_slice DD imagerel __pyx_memoryview_refcount_objects_in_slice+142
	DD	imagerel __pyx_memoryview_refcount_objects_in_slice+150
	DD	imagerel $chain$1$__pyx_memoryview_refcount_objects_in_slice
pdata	ENDS
;	COMDAT xdata
xdata	SEGMENT
$chain$1$__pyx_memoryview_refcount_objects_in_slice DD 021H
	DD	imagerel __pyx_memoryview_refcount_objects_in_slice
	DD	imagerel __pyx_memoryview_refcount_objects_in_slice+34
	DD	imagerel $unwind$__pyx_memoryview_refcount_objects_in_slice
xdata	ENDS
;	COMDAT xdata
xdata	SEGMENT
$chain$0$__pyx_memoryview_refcount_objects_in_slice DD 020521H
	DD	0a6405H
	DD	imagerel __pyx_memoryview_refcount_objects_in_slice
	DD	imagerel __pyx_memoryview_refcount_objects_in_slice+34
	DD	imagerel $unwind$__pyx_memoryview_refcount_objects_in_slice
xdata	ENDS
;	COMDAT xdata
xdata	SEGMENT
$unwind$__pyx_memoryview_refcount_objects_in_slice DD 041101H
	DD	0700d5211H
	DD	0300b500cH
; Function compile flags: /Ogtpy
xdata	ENDS
;	COMDAT __pyx_memoryview_refcount_objects_in_slice
_TEXT	SEGMENT
__pyx_v_data$ = 80
__pyx_v_shape$ = 88
__pyx_v_strides$ = 96
__pyx_v_ndim$ = 104
__pyx_v_inc$ = 112
__pyx_memoryview_refcount_objects_in_slice PROC		; COMDAT

; 19889: static void __pyx_memoryview_refcount_objects_in_slice(char *__pyx_v_data, Py_ssize_t *__pyx_v_shape, Py_ssize_t *__pyx_v_strides, int __pyx_v_ndim, int __pyx_v_inc) {

	mov	QWORD PTR [rsp+24], r8
	mov	QWORD PTR [rsp+16], rdx
	push	rbx
	push	rbp
	push	rdi
	sub	rsp, 48					; 00000030H

; 19890:   CYTHON_UNUSED Py_ssize_t __pyx_v_i;
; 19891:   __Pyx_RefNannyDeclarations
; 19892:   Py_ssize_t __pyx_t_1;
; 19893:   Py_ssize_t __pyx_t_2;
; 19894:   int __pyx_t_3;
; 19895:   __Pyx_RefNannySetupContext("refcount_objects_in_slice", 0);
; 19896: 
; 19897:   /* "View.MemoryView":1367
; 19898:  *     cdef Py_ssize_t i
; 19899:  * 
; 19900:  *     for i in range(shape[0]):             # <<<<<<<<<<<<<<
; 19901:  *         if ndim == 1:
; 19902:  *             if inc:
; 19903:  */
; 19904:   __pyx_t_1 = (__pyx_v_shape[0]);

	mov	rdi, QWORD PTR [rdx]
	mov	ebp, r9d
	mov	rax, r8
	mov	rbx, rcx

; 19905:   for (__pyx_t_2 = 0; __pyx_t_2 < __pyx_t_1; __pyx_t_2+=1) {

	test	rdi, rdi
	jle	SHORT $LN8@pyx_memory@6
	mov	QWORD PTR [rsp+80], rsi
	mov	esi, DWORD PTR __pyx_v_inc$[rsp]
	npad	5
$LL10@pyx_memory@6:

; 19906:     __pyx_v_i = __pyx_t_2;
; 19907: 
; 19908:     /* "View.MemoryView":1368
; 19909:  * 
; 19910:  *     for i in range(shape[0]):
; 19911:  *         if ndim == 1:             # <<<<<<<<<<<<<<
; 19912:  *             if inc:
; 19913:  *                 Py_INCREF((<PyObject **> data)[0])
; 19914:  */
; 19915:     __pyx_t_3 = ((__pyx_v_ndim == 1) != 0);

	cmp	ebp, 1

; 19916:     if (__pyx_t_3) {

	jne	SHORT $LN7@pyx_memory@6

; 19917: 
; 19918:       /* "View.MemoryView":1369
; 19919:  *     for i in range(shape[0]):
; 19920:  *         if ndim == 1:
; 19921:  *             if inc:             # <<<<<<<<<<<<<<
; 19922:  *                 Py_INCREF((<PyObject **> data)[0])
; 19923:  *             else:
; 19924:  */
; 19925:       __pyx_t_3 = (__pyx_v_inc != 0);

	test	esi, esi

; 19926:       if (__pyx_t_3) {

	je	SHORT $LN5@pyx_memory@6

; 19927: 
; 19928:         /* "View.MemoryView":1370
; 19929:  *         if ndim == 1:
; 19930:  *             if inc:
; 19931:  *                 Py_INCREF((<PyObject **> data)[0])             # <<<<<<<<<<<<<<
; 19932:  *             else:
; 19933:  *                 Py_DECREF((<PyObject **> data)[0])
; 19934:  */
; 19935:         Py_INCREF((((PyObject **)__pyx_v_data)[0]));

	mov	rax, QWORD PTR [rbx]
	inc	QWORD PTR [rax]

; 19936: 
; 19937:         /* "View.MemoryView":1369
; 19938:  *     for i in range(shape[0]):
; 19939:  *         if ndim == 1:
; 19940:  *             if inc:             # <<<<<<<<<<<<<<
; 19941:  *                 Py_INCREF((<PyObject **> data)[0])
; 19942:  *             else:
; 19943:  */
; 19944:         goto __pyx_L6;

	jmp	SHORT $__pyx_L5$27184
$LN5@pyx_memory@6:

; 19945:       }
; 19946: 
; 19947:       /* "View.MemoryView":1372
; 19948:  *                 Py_INCREF((<PyObject **> data)[0])
; 19949:  *             else:
; 19950:  *                 Py_DECREF((<PyObject **> data)[0])             # <<<<<<<<<<<<<<
; 19951:  *         else:
; 19952:  *             refcount_objects_in_slice(data, shape + 1, strides + 1,
; 19953:  */
; 19954:       /*else*/ {
; 19955:         Py_DECREF((((PyObject **)__pyx_v_data)[0]));

	mov	rax, QWORD PTR [rbx]
	dec	QWORD PTR [rax]
	mov	rcx, QWORD PTR [rbx]
	cmp	QWORD PTR [rcx], 0
	jne	SHORT $__pyx_L5$27184
	mov	rax, QWORD PTR [rcx+8]
	call	QWORD PTR [rax+48]

; 19956:       }
; 19957:       __pyx_L6:;
; 19958: 
; 19959:       /* "View.MemoryView":1368
; 19960:  * 
; 19961:  *     for i in range(shape[0]):
; 19962:  *         if ndim == 1:             # <<<<<<<<<<<<<<
; 19963:  *             if inc:
; 19964:  *                 Py_INCREF((<PyObject **> data)[0])
; 19965:  */
; 19966:       goto __pyx_L5;

	mov	rdx, QWORD PTR __pyx_v_shape$[rsp]
$__pyx_L6$27170:
	jmp	SHORT $__pyx_L5$27184
$LN7@pyx_memory@6:

; 19967:     }
; 19968: 
; 19969:     /* "View.MemoryView":1374
; 19970:  *                 Py_DECREF((<PyObject **> data)[0])
; 19971:  *         else:
; 19972:  *             refcount_objects_in_slice(data, shape + 1, strides + 1,             # <<<<<<<<<<<<<<
; 19973:  *                                       ndim - 1, inc)
; 19974:  * 
; 19975:  */
; 19976:     /*else*/ {
; 19977: 
; 19978:       /* "View.MemoryView":1375
; 19979:  *         else:
; 19980:  *             refcount_objects_in_slice(data, shape + 1, strides + 1,
; 19981:  *                                       ndim - 1, inc)             # <<<<<<<<<<<<<<
; 19982:  * 
; 19983:  *         data += strides[0]
; 19984:  */
; 19985:       __pyx_memoryview_refcount_objects_in_slice(__pyx_v_data, (__pyx_v_shape + 1), (__pyx_v_strides + 1), (__pyx_v_ndim - 1), __pyx_v_inc);

	lea	r9d, DWORD PTR [rbp-1]
	lea	r8, QWORD PTR [rax+8]
	add	rdx, 8
	mov	rcx, rbx
	mov	DWORD PTR [rsp+32], esi
	call	__pyx_memoryview_refcount_objects_in_slice
	mov	rdx, QWORD PTR __pyx_v_shape$[rsp]
$__pyx_L5$27184:

; 19986:     }
; 19987:     __pyx_L5:;
; 19988: 
; 19989:     /* "View.MemoryView":1377
; 19990:  *                                       ndim - 1, inc)
; 19991:  * 
; 19992:  *         data += strides[0]             # <<<<<<<<<<<<<<
; 19993:  * 
; 19994:  * 
; 19995:  */
; 19996:     __pyx_v_data = (__pyx_v_data + (__pyx_v_strides[0]));

	mov	rax, QWORD PTR __pyx_v_strides$[rsp]
	add	rbx, QWORD PTR [rax]
	sub	rdi, 1
	jne	SHORT $LL10@pyx_memory@6
	mov	rsi, QWORD PTR [rsp+80]
$LN8@pyx_memory@6:

; 19997:   }
; 19998: 
; 19999:   /* "View.MemoryView":1363
; 20000:  * 
; 20001:  * @cname('__pyx_memoryview_refcount_objects_in_slice')
; 20002:  * cdef void refcount_objects_in_slice(char *data, Py_ssize_t *shape,             # <<<<<<<<<<<<<<
; 20003:  *                                     Py_ssize_t *strides, int ndim, bint inc):
; 20004:  *     cdef Py_ssize_t i
; 20005:  */
; 20006: 
; 20007:   /* function exit code */
; 20008:   __Pyx_RefNannyFinishContext();
; 20009: }

	add	rsp, 48					; 00000030H
	pop	rdi
	pop	rbp
	pop	rbx
	ret	0
__pyx_memoryview_refcount_objects_in_slice ENDP
_TEXT	ENDS
;	COMDAT pdata
pdata	SEGMENT
$pdata$__pyx_memoryview__slice_assign_scalar DD imagerel __pyx_memoryview__slice_assign_scalar
	DD	imagerel __pyx_memoryview__slice_assign_scalar+213
	DD	imagerel $unwind$__pyx_memoryview__slice_assign_scalar
pdata	ENDS
;	COMDAT xdata
xdata	SEGMENT
$unwind$__pyx_memoryview__slice_assign_scalar DD 060c01H
	DD	0a340cH
	DD	07008520cH
	DD	050066007H
; Function compile flags: /Ogtpy
xdata	ENDS
;	COMDAT __pyx_memoryview__slice_assign_scalar
_TEXT	SEGMENT
__pyx_v_data$ = 80
tv193 = 88
__pyx_v_stride$1$ = 88
__pyx_v_shape$ = 88
tv192 = 96
__pyx_v_strides$ = 96
__pyx_v_ndim$ = 104
__pyx_v_itemsize$ = 112
__pyx_v_item$ = 120
__pyx_memoryview__slice_assign_scalar PROC		; COMDAT

; 20067: static void __pyx_memoryview__slice_assign_scalar(char *__pyx_v_data, Py_ssize_t *__pyx_v_shape, Py_ssize_t *__pyx_v_strides, int __pyx_v_ndim, size_t __pyx_v_itemsize, void *__pyx_v_item) {

	mov	QWORD PTR [rsp+8], rbx
	push	rbp
	push	rsi
	push	rdi
	sub	rsp, 48					; 00000030H

; 20068:   CYTHON_UNUSED Py_ssize_t __pyx_v_i;
; 20069:   Py_ssize_t __pyx_v_stride;
; 20070:   Py_ssize_t __pyx_v_extent;
; 20071:   int __pyx_t_1;
; 20072:   Py_ssize_t __pyx_t_2;
; 20073:   Py_ssize_t __pyx_t_3;
; 20074: 
; 20075:   /* "View.MemoryView":1397
; 20076:  *                               size_t itemsize, void *item) nogil:
; 20077:  *     cdef Py_ssize_t i
; 20078:  *     cdef Py_ssize_t stride = strides[0]             # <<<<<<<<<<<<<<
; 20079:  *     cdef Py_ssize_t extent = shape[0]
; 20080:  * 
; 20081:  */
; 20082:   __pyx_v_stride = (__pyx_v_strides[0]);

	mov	rsi, QWORD PTR [r8]

; 20083: 
; 20084:   /* "View.MemoryView":1398
; 20085:  *     cdef Py_ssize_t i
; 20086:  *     cdef Py_ssize_t stride = strides[0]
; 20087:  *     cdef Py_ssize_t extent = shape[0]             # <<<<<<<<<<<<<<
; 20088:  * 
; 20089:  *     if ndim == 1:
; 20090:  */
; 20091:   __pyx_v_extent = (__pyx_v_shape[0]);

	mov	rdi, QWORD PTR [rdx]
	mov	rbx, rcx
	mov	QWORD PTR __pyx_v_stride$1$[rsp], rsi

; 20092: 
; 20093:   /* "View.MemoryView":1400
; 20094:  *     cdef Py_ssize_t extent = shape[0]
; 20095:  * 
; 20096:  *     if ndim == 1:             # <<<<<<<<<<<<<<
; 20097:  *         for i in range(extent):
; 20098:  *             memcpy(data, item, itemsize)
; 20099:  */
; 20100:   __pyx_t_1 = ((__pyx_v_ndim == 1) != 0);

	cmp	r9d, 1

; 20101:   if (__pyx_t_1) {

	jne	SHORT $LN7@pyx_memory@7

; 20102: 
; 20103:     /* "View.MemoryView":1401
; 20104:  * 
; 20105:  *     if ndim == 1:
; 20106:  *         for i in range(extent):             # <<<<<<<<<<<<<<
; 20107:  *             memcpy(data, item, itemsize)
; 20108:  *             data += stride
; 20109:  */
; 20110:     __pyx_t_2 = __pyx_v_extent;
; 20111:     for (__pyx_t_3 = 0; __pyx_t_3 < __pyx_t_2; __pyx_t_3+=1) {

	test	rdi, rdi
	jle	$__pyx_L3$27219
	mov	rsi, QWORD PTR __pyx_v_item$[rsp]
	mov	rbp, QWORD PTR __pyx_v_itemsize$[rsp]
	npad	13
$LL6@pyx_memory@7:

; 20112:       __pyx_v_i = __pyx_t_3;
; 20113: 
; 20114:       /* "View.MemoryView":1402
; 20115:  *     if ndim == 1:
; 20116:  *         for i in range(extent):
; 20117:  *             memcpy(data, item, itemsize)             # <<<<<<<<<<<<<<
; 20118:  *             data += stride
; 20119:  *     else:
; 20120:  */
; 20121:       memcpy(__pyx_v_data, __pyx_v_item, __pyx_v_itemsize);

	mov	r8, rbp
	mov	rdx, rsi
	mov	rcx, rbx
	call	memcpy

; 20122: 
; 20123:       /* "View.MemoryView":1403
; 20124:  *         for i in range(extent):
; 20125:  *             memcpy(data, item, itemsize)
; 20126:  *             data += stride             # <<<<<<<<<<<<<<
; 20127:  *     else:
; 20128:  *         for i in range(extent):
; 20129:  */
; 20130:       __pyx_v_data = (__pyx_v_data + __pyx_v_stride);

	add	rbx, QWORD PTR __pyx_v_stride$1$[rsp]
	sub	rdi, 1
	jne	SHORT $LL6@pyx_memory@7

; 20172:     }
; 20173:   }
; 20174:   __pyx_L3:;
; 20175: 
; 20176:   /* "View.MemoryView":1393
; 20177:  * 
; 20178:  * @cname('__pyx_memoryview__slice_assign_scalar')
; 20179:  * cdef void _slice_assign_scalar(char *data, Py_ssize_t *shape,             # <<<<<<<<<<<<<<
; 20180:  *                               Py_ssize_t *strides, int ndim,
; 20181:  *                               size_t itemsize, void *item) nogil:
; 20182:  */
; 20183: 
; 20184:   /* function exit code */
; 20185: }

	mov	rbx, QWORD PTR [rsp+80]
	add	rsp, 48					; 00000030H
	pop	rdi
	pop	rsi
	pop	rbp
	ret	0
$LN7@pyx_memory@7:

; 20131:     }
; 20132: 
; 20133:     /* "View.MemoryView":1400
; 20134:  *     cdef Py_ssize_t extent = shape[0]
; 20135:  * 
; 20136:  *     if ndim == 1:             # <<<<<<<<<<<<<<
; 20137:  *         for i in range(extent):
; 20138:  *             memcpy(data, item, itemsize)
; 20139:  */
; 20140:     goto __pyx_L3;
; 20141:   }
; 20142: 
; 20143:   /* "View.MemoryView":1405
; 20144:  *             data += stride
; 20145:  *     else:
; 20146:  *         for i in range(extent):             # <<<<<<<<<<<<<<
; 20147:  *             _slice_assign_scalar(data, shape + 1, strides + 1,
; 20148:  *                                 ndim - 1, itemsize, item)
; 20149:  */
; 20150:   /*else*/ {
; 20151:     __pyx_t_2 = __pyx_v_extent;
; 20152:     for (__pyx_t_3 = 0; __pyx_t_3 < __pyx_t_2; __pyx_t_3+=1) {

	test	rdi, rdi
	jle	SHORT $__pyx_L3$27219
	lea	rax, QWORD PTR [r8+8]
	lea	rcx, QWORD PTR [rdx+8]
	lea	ebp, DWORD PTR [r9-1]
	mov	QWORD PTR tv193[rsp], rax
	mov	QWORD PTR tv192[rsp], rcx
	npad	15
$LL3@pyx_memory@7:

; 20153:       __pyx_v_i = __pyx_t_3;
; 20154: 
; 20155:       /* "View.MemoryView":1406
; 20156:  *     else:
; 20157:  *         for i in range(extent):
; 20158:  *             _slice_assign_scalar(data, shape + 1, strides + 1,             # <<<<<<<<<<<<<<
; 20159:  *                                 ndim - 1, itemsize, item)
; 20160:  *             data += stride
; 20161:  */
; 20162:       __pyx_memoryview__slice_assign_scalar(__pyx_v_data, (__pyx_v_shape + 1), (__pyx_v_strides + 1), (__pyx_v_ndim - 1), __pyx_v_itemsize, __pyx_v_item);

	mov	rdx, QWORD PTR __pyx_v_item$[rsp]
	mov	r9d, ebp
	mov	r8, rax
	mov	QWORD PTR [rsp+40], rdx
	mov	rdx, QWORD PTR __pyx_v_itemsize$[rsp]
	mov	QWORD PTR [rsp+32], rdx
	mov	rdx, rcx
	mov	rcx, rbx
	call	__pyx_memoryview__slice_assign_scalar
	mov	rax, QWORD PTR tv193[rsp]
	mov	rcx, QWORD PTR tv192[rsp]

; 20163: 
; 20164:       /* "View.MemoryView":1408
; 20165:  *             _slice_assign_scalar(data, shape + 1, strides + 1,
; 20166:  *                                 ndim - 1, itemsize, item)
; 20167:  *             data += stride             # <<<<<<<<<<<<<<
; 20168:  * 
; 20169:  * 
; 20170:  */
; 20171:       __pyx_v_data = (__pyx_v_data + __pyx_v_stride);

	add	rbx, rsi
	sub	rdi, 1
	jne	SHORT $LL3@pyx_memory@7
$__pyx_L3$27219:

; 20172:     }
; 20173:   }
; 20174:   __pyx_L3:;
; 20175: 
; 20176:   /* "View.MemoryView":1393
; 20177:  * 
; 20178:  * @cname('__pyx_memoryview__slice_assign_scalar')
; 20179:  * cdef void _slice_assign_scalar(char *data, Py_ssize_t *shape,             # <<<<<<<<<<<<<<
; 20180:  *                               Py_ssize_t *strides, int ndim,
; 20181:  *                               size_t itemsize, void *item) nogil:
; 20182:  */
; 20183: 
; 20184:   /* function exit code */
; 20185: }

	mov	rbx, QWORD PTR [rsp+80]
	add	rsp, 48					; 00000030H
	pop	rdi
	pop	rsi
	pop	rbp
	ret	0
__pyx_memoryview__slice_assign_scalar ENDP
_TEXT	ENDS
EXTRN	__imp_PyInt_FromSsize_t:PROC
;	COMDAT pdata
pdata	SEGMENT
$pdata$__pyx_sq_item_array DD imagerel __pyx_sq_item_array
	DD	imagerel __pyx_sq_item_array+92
	DD	imagerel $unwind$__pyx_sq_item_array
pdata	ENDS
;	COMDAT xdata
xdata	SEGMENT
$unwind$__pyx_sq_item_array DD 040a01H
	DD	06340aH
	DD	07006320aH
; Function compile flags: /Ogtpy
xdata	ENDS
;	COMDAT __pyx_sq_item_array
_TEXT	SEGMENT
o$ = 48
i$ = 56
__pyx_sq_item_array PROC				; COMDAT

; 20705: static PyObject *__pyx_sq_item_array(PyObject *o, Py_ssize_t i) {

	mov	QWORD PTR [rsp+8], rbx
	push	rdi
	sub	rsp, 32					; 00000020H
	mov	rdi, rcx

; 20706:   PyObject *r;
; 20707:   PyObject *x = PyInt_FromSsize_t(i); if(!x) return 0;

	mov	rcx, rdx
	call	QWORD PTR __imp_PyInt_FromSsize_t
	mov	rbx, rax
	test	rax, rax
	jne	SHORT $LN6@pyx_sq_ite

; 20711: }

	mov	rbx, QWORD PTR [rsp+48]
	add	rsp, 32					; 00000020H
	pop	rdi
	ret	0
$LN6@pyx_sq_ite:

; 20708:   r = Py_TYPE(o)->tp_as_mapping->mp_subscript(o, x);

	mov	rax, QWORD PTR [rdi+8]
	mov	rdx, rbx
	mov	rcx, rdi
	mov	r8, QWORD PTR [rax+112]
	call	QWORD PTR [r8+8]

; 20709:   Py_DECREF(x);

	add	QWORD PTR [rbx], -1
	mov	rdi, rax
	jne	SHORT $LN4@pyx_sq_ite
	mov	rdx, QWORD PTR [rbx+8]
	mov	rcx, rbx
	call	QWORD PTR [rdx+48]
$LN4@pyx_sq_ite:

; 20710:   return r;

	mov	rax, rdi

; 20711: }

	mov	rbx, QWORD PTR [rsp+48]
	add	rsp, 32					; 00000020H
	pop	rdi
	ret	0
__pyx_sq_item_array ENDP
_TEXT	ENDS
EXTRN	__imp_PyBaseObject_Type:BYTE
_BSS	SEGMENT
	ALIGN	8

__pyx_empty_tuple DQ 01H DUP (?)
_BSS	ENDS
;	COMDAT pdata
pdata	SEGMENT
$pdata$__pyx_tp_new_Enum DD imagerel __pyx_tp_new_Enum
	DD	imagerel __pyx_tp_new_Enum+92
	DD	imagerel $unwind$__pyx_tp_new_Enum
pdata	ENDS
;	COMDAT xdata
xdata	SEGMENT
$unwind$__pyx_tp_new_Enum DD 010401H
	DD	04204H
; Function compile flags: /Ogtpy
xdata	ENDS
;	COMDAT __pyx_tp_new_Enum
_TEXT	SEGMENT
t$ = 48
a$ = 56
k$ = 64
__pyx_tp_new_Enum PROC					; COMDAT

; 20843: static PyObject *__pyx_tp_new_Enum(PyTypeObject *t, CYTHON_UNUSED PyObject *a, CYTHON_UNUSED PyObject *k) {

	sub	rsp, 40					; 00000028H

; 20844:   struct __pyx_MemviewEnum_obj *p;
; 20845:   PyObject *o;
; 20846:   if (likely((t->tp_flags & Py_TPFLAGS_IS_ABSTRACT) == 0)) {

	bt	DWORD PTR [rcx+168], 20
	mov	rax, rcx
	jb	SHORT $LN3@pyx_tp_new

; 20847:     o = (*t->tp_alloc)(t, 0);

	xor	edx, edx
	call	QWORD PTR [rax+304]

; 20848:   } else {

	jmp	SHORT $LN6@pyx_tp_new
$LN3@pyx_tp_new:

; 20849:     o = (PyObject *) PyBaseObject_Type.tp_new(t, __pyx_empty_tuple, 0);

	mov	rax, QWORD PTR __imp_PyBaseObject_Type
	mov	rdx, QWORD PTR __pyx_empty_tuple
	xor	r8d, r8d
	call	QWORD PTR [rax+312]
$LN6@pyx_tp_new:
	mov	r11, rax

; 20850:   }
; 20851:   if (unlikely(!o)) return 0;

	test	rax, rax
	jne	SHORT $LN1@pyx_tp_new

; 20855: }

	add	rsp, 40					; 00000028H
	ret	0
$LN1@pyx_tp_new:

; 20852:   p = ((struct __pyx_MemviewEnum_obj *)o);
; 20853:   p->name = Py_None; Py_INCREF(Py_None);

	mov	rax, QWORD PTR __imp__Py_NoneStruct
	mov	QWORD PTR [r11+16], rax
	mov	rax, QWORD PTR __imp__Py_NoneStruct
	inc	QWORD PTR [rax]

; 20854:   return o;

	mov	rax, r11

; 20855: }

	add	rsp, 40					; 00000028H
	ret	0
__pyx_tp_new_Enum ENDP
_TEXT	ENDS
EXTRN	__imp_PyObject_GC_UnTrack:PROC
;	COMDAT pdata
pdata	SEGMENT
$pdata$__pyx_tp_dealloc_Enum DD imagerel __pyx_tp_dealloc_Enum
	DD	imagerel __pyx_tp_dealloc_Enum+64
	DD	imagerel $unwind$__pyx_tp_dealloc_Enum
pdata	ENDS
;	COMDAT xdata
xdata	SEGMENT
$unwind$__pyx_tp_dealloc_Enum DD 020601H
	DD	030023206H
; Function compile flags: /Ogtpy
xdata	ENDS
;	COMDAT __pyx_tp_dealloc_Enum
_TEXT	SEGMENT
o$ = 48
__pyx_tp_dealloc_Enum PROC				; COMDAT

; 20857: static void __pyx_tp_dealloc_Enum(PyObject *o) {

	push	rbx
	sub	rsp, 32					; 00000020H
	mov	rbx, rcx

; 20858:   struct __pyx_MemviewEnum_obj *p = (struct __pyx_MemviewEnum_obj *)o;
; 20859:   #if CYTHON_USE_TP_FINALIZE
; 20860:   if (unlikely(PyType_HasFeature(Py_TYPE(o), Py_TPFLAGS_HAVE_FINALIZE) && Py_TYPE(o)->tp_finalize) && !_PyGC_FINALIZED(o)) {
; 20861:     if (PyObject_CallFinalizerFromDealloc(o)) return;
; 20862:   }
; 20863:   #endif
; 20864:   PyObject_GC_UnTrack(o);

	call	QWORD PTR __imp_PyObject_GC_UnTrack

; 20865:   Py_CLEAR(p->name);

	mov	rcx, QWORD PTR [rbx+16]
	test	rcx, rcx
	je	SHORT $LN3@pyx_tp_dea
	mov	QWORD PTR [rbx+16], 0
	add	QWORD PTR [rcx], -1
	jne	SHORT $LN3@pyx_tp_dea
	mov	rax, QWORD PTR [rcx+8]
	call	QWORD PTR [rax+48]
$LN3@pyx_tp_dea:

; 20866:   (*Py_TYPE(o)->tp_free)(o);

	mov	rax, QWORD PTR [rbx+8]
	mov	rcx, rbx

; 20867: }

	add	rsp, 32					; 00000020H
	pop	rbx
	rex_jmp	QWORD PTR [rax+320]
__pyx_tp_dealloc_Enum ENDP
_TEXT	ENDS
;	COMDAT pdata
pdata	SEGMENT
$pdata$__pyx_tp_traverse_Enum DD imagerel __pyx_tp_traverse_Enum
	DD	imagerel __pyx_tp_traverse_Enum+32
	DD	imagerel $unwind$__pyx_tp_traverse_Enum
pdata	ENDS
;	COMDAT xdata
xdata	SEGMENT
$unwind$__pyx_tp_traverse_Enum DD 010401H
	DD	04204H
; Function compile flags: /Ogtpy
xdata	ENDS
;	COMDAT __pyx_tp_traverse_Enum
_TEXT	SEGMENT
o$ = 48
v$ = 56
a$ = 64
__pyx_tp_traverse_Enum PROC				; COMDAT

; 20869: static int __pyx_tp_traverse_Enum(PyObject *o, visitproc v, void *a) {

	sub	rsp, 40					; 00000028H

; 20870:   int e;
; 20871:   struct __pyx_MemviewEnum_obj *p = (struct __pyx_MemviewEnum_obj *)o;
; 20872:   if (p->name) {

	mov	rcx, QWORD PTR [rcx+16]
	mov	rax, rdx
	test	rcx, rcx
	je	SHORT $LN1@pyx_tp_tra

; 20873:     e = (*v)(p->name, a); if (e) return e;

	mov	rdx, r8
	call	rax
	test	eax, eax
	jne	SHORT $LN3@pyx_tp_tra
$LN1@pyx_tp_tra:

; 20874:   }
; 20875:   return 0;

	xor	eax, eax
$LN3@pyx_tp_tra:

; 20876: }

	add	rsp, 40					; 00000028H
	ret	0
__pyx_tp_traverse_Enum ENDP
_TEXT	ENDS
;	COMDAT pdata
pdata	SEGMENT
$pdata$__pyx_tp_clear_Enum DD imagerel __pyx_tp_clear_Enum
	DD	imagerel __pyx_tp_clear_Enum+57
	DD	imagerel $unwind$__pyx_tp_clear_Enum
pdata	ENDS
;	COMDAT xdata
xdata	SEGMENT
$unwind$__pyx_tp_clear_Enum DD 010401H
	DD	04204H
; Function compile flags: /Ogtpy
xdata	ENDS
;	COMDAT __pyx_tp_clear_Enum
_TEXT	SEGMENT
o$ = 48
__pyx_tp_clear_Enum PROC				; COMDAT

; 20878: static int __pyx_tp_clear_Enum(PyObject *o) {

	sub	rsp, 40					; 00000028H

; 20879:   PyObject* tmp;
; 20880:   struct __pyx_MemviewEnum_obj *p = (struct __pyx_MemviewEnum_obj *)o;
; 20881:   tmp = ((PyObject*)p->name);
; 20882:   p->name = Py_None; Py_INCREF(Py_None);

	mov	rax, QWORD PTR __imp__Py_NoneStruct
	mov	rdx, QWORD PTR [rcx+16]
	mov	QWORD PTR [rcx+16], rax
	mov	rax, QWORD PTR __imp__Py_NoneStruct
	inc	QWORD PTR [rax]

; 20883:   Py_XDECREF(tmp);

	test	rdx, rdx
	je	SHORT $LN13@pyx_tp_cle
	add	QWORD PTR [rdx], -1
	jne	SHORT $LN13@pyx_tp_cle
	mov	rax, QWORD PTR [rdx+8]
	mov	rcx, rdx
	call	QWORD PTR [rax+48]
$LN13@pyx_tp_cle:

; 20884:   return 0;

	xor	eax, eax

; 20885: }

	add	rsp, 40					; 00000028H
	ret	0
__pyx_tp_clear_Enum ENDP
_TEXT	ENDS
;	COMDAT pdata
pdata	SEGMENT
$pdata$__pyx_tp_traverse_memoryview DD imagerel __pyx_tp_traverse_memoryview
	DD	imagerel __pyx_tp_traverse_memoryview+114
	DD	imagerel $unwind$__pyx_tp_traverse_memoryview
pdata	ENDS
;	COMDAT xdata
xdata	SEGMENT
$unwind$__pyx_tp_traverse_memoryview DD 060f01H
	DD	07640fH
	DD	06340fH
	DD	0700b320fH
; Function compile flags: /Ogtpy
xdata	ENDS
;	COMDAT __pyx_tp_traverse_memoryview
_TEXT	SEGMENT
o$ = 48
v$ = 56
a$ = 64
__pyx_tp_traverse_memoryview PROC			; COMDAT

; 20996: static int __pyx_tp_traverse_memoryview(PyObject *o, visitproc v, void *a) {

	mov	QWORD PTR [rsp+8], rbx
	mov	QWORD PTR [rsp+16], rsi
	push	rdi
	sub	rsp, 32					; 00000020H
	mov	rbx, rcx

; 20997:   int e;
; 20998:   struct __pyx_memoryview_obj *p = (struct __pyx_memoryview_obj *)o;
; 20999:   if (p->obj) {

	mov	rcx, QWORD PTR [rcx+24]
	mov	rdi, r8
	mov	rsi, rdx
	test	rcx, rcx
	je	SHORT $LN7@pyx_tp_tra@2

; 21000:     e = (*v)(p->obj, a); if (e) return e;

	mov	rdx, r8
	call	rsi
	test	eax, eax
	jne	SHORT $LN9@pyx_tp_tra@2
$LN7@pyx_tp_tra@2:

; 21001:   }
; 21002:   if (p->_size) {

	mov	rcx, QWORD PTR [rbx+32]
	test	rcx, rcx
	je	SHORT $LN5@pyx_tp_tra@2

; 21003:     e = (*v)(p->_size, a); if (e) return e;

	mov	rdx, rdi
	call	rsi
	test	eax, eax
	jne	SHORT $LN9@pyx_tp_tra@2
$LN5@pyx_tp_tra@2:

; 21004:   }
; 21005:   if (p->_array_interface) {

	mov	rcx, QWORD PTR [rbx+40]
	test	rcx, rcx
	je	SHORT $LN3@pyx_tp_tra@2

; 21006:     e = (*v)(p->_array_interface, a); if (e) return e;

	mov	rdx, rdi
	call	rsi
	test	eax, eax
	jne	SHORT $LN9@pyx_tp_tra@2
$LN3@pyx_tp_tra@2:

; 21007:   }
; 21008:   if (p->view.obj) {

	mov	rcx, QWORD PTR [rbx+80]
	test	rcx, rcx
	je	SHORT $LN1@pyx_tp_tra@2

; 21009:     e = (*v)(p->view.obj, a); if (e) return e;

	mov	rdx, rdi
	call	rsi
	test	eax, eax
	jne	SHORT $LN9@pyx_tp_tra@2
$LN1@pyx_tp_tra@2:

; 21010:   }
; 21011:   return 0;

	xor	eax, eax
$LN9@pyx_tp_tra@2:

; 21012: }

	mov	rbx, QWORD PTR [rsp+48]
	mov	rsi, QWORD PTR [rsp+56]
	add	rsp, 32					; 00000020H
	pop	rdi
	ret	0
__pyx_tp_traverse_memoryview ENDP
_TEXT	ENDS
;	COMDAT pdata
pdata	SEGMENT
$pdata$__pyx_tp_clear_memoryview DD imagerel __pyx_tp_clear_memoryview
	DD	imagerel __pyx_tp_clear_memoryview+176
	DD	imagerel $unwind$__pyx_tp_clear_memoryview
pdata	ENDS
;	COMDAT xdata
xdata	SEGMENT
$unwind$__pyx_tp_clear_memoryview DD 020601H
	DD	030023206H
; Function compile flags: /Ogtpy
xdata	ENDS
;	COMDAT __pyx_tp_clear_memoryview
_TEXT	SEGMENT
o$ = 48
__pyx_tp_clear_memoryview PROC				; COMDAT

; 21014: static int __pyx_tp_clear_memoryview(PyObject *o) {

	push	rbx
	sub	rsp, 32					; 00000020H

; 21015:   PyObject* tmp;
; 21016:   struct __pyx_memoryview_obj *p = (struct __pyx_memoryview_obj *)o;
; 21017:   tmp = ((PyObject*)p->obj);
; 21018:   p->obj = Py_None; Py_INCREF(Py_None);

	mov	rax, QWORD PTR __imp__Py_NoneStruct
	mov	rbx, rcx
	mov	rcx, QWORD PTR [rcx+24]
	mov	QWORD PTR [rbx+24], rax
	mov	rax, QWORD PTR __imp__Py_NoneStruct
	inc	QWORD PTR [rax]

; 21019:   Py_XDECREF(tmp);

	test	rcx, rcx
	je	SHORT $LN32@pyx_tp_cle@2
	add	QWORD PTR [rcx], -1
	jne	SHORT $LN32@pyx_tp_cle@2
	mov	rax, QWORD PTR [rcx+8]
	call	QWORD PTR [rax+48]
$LN32@pyx_tp_cle@2:

; 21020:   tmp = ((PyObject*)p->_size);
; 21021:   p->_size = Py_None; Py_INCREF(Py_None);

	mov	rax, QWORD PTR __imp__Py_NoneStruct
	mov	rcx, QWORD PTR [rbx+32]
	mov	QWORD PTR [rbx+32], rax
	mov	rax, QWORD PTR __imp__Py_NoneStruct
	inc	QWORD PTR [rax]

; 21022:   Py_XDECREF(tmp);

	test	rcx, rcx
	je	SHORT $LN22@pyx_tp_cle@2
	add	QWORD PTR [rcx], -1
	jne	SHORT $LN22@pyx_tp_cle@2
	mov	rax, QWORD PTR [rcx+8]
	call	QWORD PTR [rax+48]
$LN22@pyx_tp_cle@2:

; 21023:   tmp = ((PyObject*)p->_array_interface);
; 21024:   p->_array_interface = Py_None; Py_INCREF(Py_None);

	mov	rax, QWORD PTR __imp__Py_NoneStruct
	mov	rcx, QWORD PTR [rbx+40]
	mov	QWORD PTR [rbx+40], rax
	mov	rax, QWORD PTR __imp__Py_NoneStruct
	inc	QWORD PTR [rax]

; 21025:   Py_XDECREF(tmp);

	test	rcx, rcx
	je	SHORT $LN12@pyx_tp_cle@2
	add	QWORD PTR [rcx], -1
	jne	SHORT $LN12@pyx_tp_cle@2
	mov	rax, QWORD PTR [rcx+8]
	call	QWORD PTR [rax+48]
$LN12@pyx_tp_cle@2:

; 21026:   Py_CLEAR(p->view.obj);

	mov	rcx, QWORD PTR [rbx+80]
	test	rcx, rcx
	je	SHORT $LN42@pyx_tp_cle@2
	mov	QWORD PTR [rbx+80], 0
	add	QWORD PTR [rcx], -1
	jne	SHORT $LN42@pyx_tp_cle@2
	mov	rax, QWORD PTR [rcx+8]
	call	QWORD PTR [rax+48]
$LN42@pyx_tp_cle@2:

; 21027:   return 0;

	xor	eax, eax

; 21028: }

	add	rsp, 32					; 00000020H
	pop	rbx
	ret	0
__pyx_tp_clear_memoryview ENDP
_TEXT	ENDS
;	COMDAT pdata
pdata	SEGMENT
$pdata$__pyx_sq_item_memoryview DD imagerel __pyx_sq_item_memoryview
	DD	imagerel __pyx_sq_item_memoryview+92
	DD	imagerel $unwind$__pyx_sq_item_memoryview
pdata	ENDS
;	COMDAT xdata
xdata	SEGMENT
$unwind$__pyx_sq_item_memoryview DD 040a01H
	DD	06340aH
	DD	07006320aH
; Function compile flags: /Ogtpy
xdata	ENDS
;	COMDAT __pyx_sq_item_memoryview
_TEXT	SEGMENT
o$ = 48
i$ = 56
__pyx_sq_item_memoryview PROC				; COMDAT

; 21029: static PyObject *__pyx_sq_item_memoryview(PyObject *o, Py_ssize_t i) {

	mov	QWORD PTR [rsp+8], rbx
	push	rdi
	sub	rsp, 32					; 00000020H
	mov	rdi, rcx

; 21030:   PyObject *r;
; 21031:   PyObject *x = PyInt_FromSsize_t(i); if(!x) return 0;

	mov	rcx, rdx
	call	QWORD PTR __imp_PyInt_FromSsize_t
	mov	rbx, rax
	test	rax, rax
	jne	SHORT $LN6@pyx_sq_ite@2

; 21035: }

	mov	rbx, QWORD PTR [rsp+48]
	add	rsp, 32					; 00000020H
	pop	rdi
	ret	0
$LN6@pyx_sq_ite@2:

; 21032:   r = Py_TYPE(o)->tp_as_mapping->mp_subscript(o, x);

	mov	rax, QWORD PTR [rdi+8]
	mov	rdx, rbx
	mov	rcx, rdi
	mov	r8, QWORD PTR [rax+112]
	call	QWORD PTR [r8+8]

; 21033:   Py_DECREF(x);

	add	QWORD PTR [rbx], -1
	mov	rdi, rax
	jne	SHORT $LN4@pyx_sq_ite@2
	mov	rdx, QWORD PTR [rbx+8]
	mov	rcx, rbx
	call	QWORD PTR [rdx+48]
$LN4@pyx_sq_ite@2:

; 21034:   return r;

	mov	rax, rdi

; 21035: }

	mov	rbx, QWORD PTR [rsp+48]
	add	rsp, 32					; 00000020H
	pop	rdi
	ret	0
__pyx_sq_item_memoryview ENDP
_TEXT	ENDS
;	COMDAT pdata
pdata	SEGMENT
$pdata$__pyx_tp_traverse__memoryviewslice DD imagerel __pyx_tp_traverse__memoryviewslice
	DD	imagerel __pyx_tp_traverse__memoryviewslice+72
	DD	imagerel $unwind$__pyx_tp_traverse__memoryviewslice
pdata	ENDS
;	COMDAT xdata
xdata	SEGMENT
$unwind$__pyx_tp_traverse__memoryviewslice DD 060f01H
	DD	07640fH
	DD	06340fH
	DD	0700b320fH
; Function compile flags: /Ogtpy
xdata	ENDS
;	COMDAT __pyx_tp_traverse__memoryviewslice
_TEXT	SEGMENT
o$ = 48
v$ = 56
a$ = 64
__pyx_tp_traverse__memoryviewslice PROC			; COMDAT

; 21234: static int __pyx_tp_traverse__memoryviewslice(PyObject *o, visitproc v, void *a) {

	mov	QWORD PTR [rsp+8], rbx
	mov	QWORD PTR [rsp+16], rsi
	push	rdi
	sub	rsp, 32					; 00000020H
	mov	rdi, r8
	mov	rsi, rdx
	mov	rbx, rcx

; 21235:   int e;
; 21236:   struct __pyx_memoryviewslice_obj *p = (struct __pyx_memoryviewslice_obj *)o;
; 21237:   e = __pyx_tp_traverse_memoryview(o, v, a); if (e) return e;

	call	__pyx_tp_traverse_memoryview
	test	eax, eax
	jne	SHORT $LN4@pyx_tp_tra@3

; 21238:   if (p->from_object) {

	mov	rcx, QWORD PTR [rbx+392]
	test	rcx, rcx
	je	SHORT $LN1@pyx_tp_tra@3

; 21239:     e = (*v)(p->from_object, a); if (e) return e;

	mov	rdx, rdi
	call	rsi
	test	eax, eax
	jne	SHORT $LN4@pyx_tp_tra@3
$LN1@pyx_tp_tra@3:

; 21240:   }
; 21241:   return 0;

	xor	eax, eax
$LN4@pyx_tp_tra@3:

; 21242: }

	mov	rbx, QWORD PTR [rsp+48]
	mov	rsi, QWORD PTR [rsp+56]
	add	rsp, 32					; 00000020H
	pop	rdi
	ret	0
__pyx_tp_traverse__memoryviewslice ENDP
_TEXT	ENDS
EXTRN	__imp_PyCode_New:PROC
EXTRN	__imp_PyTuple_New:PROC
EXTRN	__imp_PyTuple_Pack:PROC
EXTRN	__imp_PySlice_New:PROC
_BSS	SEGMENT
__pyx_codeobj__47 DQ 01H DUP (?)
__pyx_tuple__46 DQ 01H DUP (?)
__pyx_tuple__45 DQ 01H DUP (?)
__pyx_tuple__44 DQ 01H DUP (?)
__pyx_tuple__43 DQ 01H DUP (?)
__pyx_tuple__42 DQ 01H DUP (?)
__pyx_tuple__41 DQ 01H DUP (?)
__pyx_codeobj__40 DQ 01H DUP (?)
__pyx_tuple__39 DQ 01H DUP (?)
__pyx_codeobj__38 DQ 01H DUP (?)
__pyx_tuple__37 DQ 01H DUP (?)
__pyx_codeobj__36 DQ 01H DUP (?)
__pyx_tuple__35 DQ 01H DUP (?)
__pyx_codeobj__34 DQ 01H DUP (?)
__pyx_tuple__33 DQ 01H DUP (?)
__pyx_codeobj__32 DQ 01H DUP (?)
__pyx_empty_bytes DQ 01H DUP (?)
__pyx_tuple__31 DQ 01H DUP (?)
__pyx_tuple__30 DQ 01H DUP (?)
__pyx_tuple__29 DQ 01H DUP (?)
__pyx_tuple__28 DQ 01H DUP (?)
__pyx_slice__27 DQ 01H DUP (?)
__pyx_slice__26 DQ 01H DUP (?)
__pyx_slice__25 DQ 01H DUP (?)
__pyx_tuple__24 DQ 01H DUP (?)
__pyx_tuple__23 DQ 01H DUP (?)
__pyx_int_neg_1 DQ 01H DUP (?)
__pyx_tuple__22 DQ 01H DUP (?)
__pyx_tuple__21 DQ 01H DUP (?)
__pyx_tuple__20 DQ 01H DUP (?)
__pyx_tuple__19 DQ 01H DUP (?)
__pyx_tuple__18 DQ 01H DUP (?)
__pyx_tuple__17 DQ 01H DUP (?)
__pyx_tuple__16 DQ 01H DUP (?)
__pyx_tuple__15 DQ 01H DUP (?)
__pyx_tuple__14 DQ 01H DUP (?)
__pyx_tuple__13 DQ 01H DUP (?)
__pyx_tuple__12 DQ 01H DUP (?)
__pyx_tuple__11 DQ 01H DUP (?)
__pyx_tuple__10 DQ 01H DUP (?)
__pyx_tuple__9 DQ 01H DUP (?)
__pyx_tuple__8 DQ 01H DUP (?)
__pyx_tuple__7 DQ 01H DUP (?)
__pyx_tuple__6 DQ 01H DUP (?)
__pyx_tuple__5 DQ 01H DUP (?)
__pyx_tuple__4 DQ 01H DUP (?)
__pyx_tuple__3 DQ 01H DUP (?)
__pyx_slice__2 DQ 01H DUP (?)
__pyx_filename DQ 01H DUP (?)
__pyx_lineno DD	01H DUP (?)
	ALIGN	8

__pyx_slice_ DQ	01H DUP (?)
_BSS	ENDS
;	COMDAT pdata
pdata	SEGMENT
$pdata$__Pyx_InitCachedConstants DD imagerel __Pyx_InitCachedConstants
	DD	imagerel __Pyx_InitCachedConstants+3632
	DD	imagerel $unwind$__Pyx_InitCachedConstants
pdata	ENDS
;	COMDAT xdata
xdata	SEGMENT
$unwind$__Pyx_InitCachedConstants DD 010401H
	DD	0e204H
; Function compile flags: /Ogtpy
xdata	ENDS
;	COMDAT __Pyx_InitCachedConstants
_TEXT	SEGMENT
__Pyx_InitCachedConstants PROC				; COMDAT

; 21517: static int __Pyx_InitCachedConstants(void) {

	sub	rsp, 120				; 00000078H

; 21518:   __Pyx_RefNannyDeclarations
; 21519:   __Pyx_RefNannySetupContext("__Pyx_InitCachedConstants", 0);
; 21520: 
; 21521:   /* "rsrpsinr.pyx":161
; 21522:  *         np.ndarray[DTYPE_t, ndim=1] sinr = np.zeros(num_samples, dtype=DTYPE, order='C')
; 21523:  *         np.ndarray[DTYPE_t, ndim=1] noise = np.zeros(num_samples, dtype=DTYPE, order='C')
; 21524:  *     bIndex[:] = -1             # <<<<<<<<<<<<<<
; 21525:  *     noise[:] = pow(10., NOISE/10.0)
; 21526:  * 
; 21527:  */
; 21528:   __pyx_slice_ = PySlice_New(Py_None, Py_None, Py_None); if (unlikely(!__pyx_slice_)) __PYX_ERR(0, 161, __pyx_L1_error)

	mov	rcx, QWORD PTR __imp__Py_NoneStruct
	mov	r8, rcx
	mov	rdx, rcx
	call	QWORD PTR __imp_PySlice_New
	mov	QWORD PTR __pyx_slice_, rax
	test	rax, rax
	jne	SHORT $LN47@Pyx_InitCa
	mov	rax, QWORD PTR __pyx_f
	mov	DWORD PTR __pyx_lineno, 161		; 000000a1H
	mov	DWORD PTR __pyx_clineno, 21528		; 00005418H

; 21964:   __Pyx_GOTREF(__pyx_tuple__46);
; 21965:   __Pyx_GIVEREF(__pyx_tuple__46);
; 21966:   __pyx_codeobj__47 = (PyObject*)__Pyx_PyCode_New(3, 0, 5, 0, CO_OPTIMIZED|CO_NEWLOCALS, __pyx_empty_bytes, __pyx_empty_tuple, __pyx_empty_tuple, __pyx_tuple__46, __pyx_empty_tuple, __pyx_empty_tuple, __pyx_kp_s_stringsource, __pyx_n_s_pyx_unpickle_Enum, 1, __pyx_empty_bytes); if (unlikely(!__pyx_codeobj__47)) __PYX_ERR(2, 1, __pyx_L1_error)

	mov	QWORD PTR __pyx_filename, rax

; 21969:   __pyx_L1_error:;
; 21970:   __Pyx_RefNannyFinishContext();
; 21971:   return -1;

	or	eax, -1
$__pyx_L1_error$28664:

; 21972: }

	add	rsp, 120				; 00000078H
	ret	0
$LN47@Pyx_InitCa:

; 21529:   __Pyx_GOTREF(__pyx_slice_);
; 21530:   __Pyx_GIVEREF(__pyx_slice_);
; 21531: 
; 21532:   /* "rsrpsinr.pyx":162
; 21533:  *         np.ndarray[DTYPE_t, ndim=1] noise = np.zeros(num_samples, dtype=DTYPE, order='C')
; 21534:  *     bIndex[:] = -1
; 21535:  *     noise[:] = pow(10., NOISE/10.0)             # <<<<<<<<<<<<<<
; 21536:  * 
; 21537:  *     cdef:
; 21538:  */
; 21539:   __pyx_slice__2 = PySlice_New(Py_None, Py_None, Py_None); if (unlikely(!__pyx_slice__2)) __PYX_ERR(0, 162, __pyx_L1_error)

	mov	rcx, QWORD PTR __imp__Py_NoneStruct
	mov	r8, rcx
	mov	rdx, rcx
	call	QWORD PTR __imp_PySlice_New
	mov	QWORD PTR __pyx_slice__2, rax
	test	rax, rax
	jne	SHORT $LN46@Pyx_InitCa
	mov	rax, QWORD PTR __pyx_f
	mov	DWORD PTR __pyx_lineno, 162		; 000000a2H
	mov	DWORD PTR __pyx_clineno, 21539		; 00005423H

; 21964:   __Pyx_GOTREF(__pyx_tuple__46);
; 21965:   __Pyx_GIVEREF(__pyx_tuple__46);
; 21966:   __pyx_codeobj__47 = (PyObject*)__Pyx_PyCode_New(3, 0, 5, 0, CO_OPTIMIZED|CO_NEWLOCALS, __pyx_empty_bytes, __pyx_empty_tuple, __pyx_empty_tuple, __pyx_tuple__46, __pyx_empty_tuple, __pyx_empty_tuple, __pyx_kp_s_stringsource, __pyx_n_s_pyx_unpickle_Enum, 1, __pyx_empty_bytes); if (unlikely(!__pyx_codeobj__47)) __PYX_ERR(2, 1, __pyx_L1_error)

	mov	QWORD PTR __pyx_filename, rax

; 21969:   __pyx_L1_error:;
; 21970:   __Pyx_RefNannyFinishContext();
; 21971:   return -1;

	or	eax, -1
$__pyx_L1_error_1$28664:

; 21972: }

	add	rsp, 120				; 00000078H
	ret	0
$LN46@Pyx_InitCa:

; 21540:   __Pyx_GOTREF(__pyx_slice__2);
; 21541:   __Pyx_GIVEREF(__pyx_slice__2);
; 21542: 
; 21543:   /* "C:/Python27/lib/site-packages/Cython/Includes/numpy/__init__.pxd":235
; 21544:  *             if ((flags & pybuf.PyBUF_C_CONTIGUOUS == pybuf.PyBUF_C_CONTIGUOUS)
; 21545:  *                 and not PyArray_CHKFLAGS(self, NPY_C_CONTIGUOUS)):
; 21546:  *                 raise ValueError(u"ndarray is not C contiguous")             # <<<<<<<<<<<<<<
; 21547:  * 
; 21548:  *             if ((flags & pybuf.PyBUF_F_CONTIGUOUS == pybuf.PyBUF_F_CONTIGUOUS)
; 21549:  */
; 21550:   __pyx_tuple__3 = PyTuple_Pack(1, __pyx_kp_u_ndarray_is_not_C_contiguous); if (unlikely(!__pyx_tuple__3)) __PYX_ERR(1, 235, __pyx_L1_error)

	mov	rdx, QWORD PTR __pyx_kp_u_ndarray_is_not_C_contiguous
	mov	ecx, 1
	call	QWORD PTR __imp_PyTuple_Pack
	mov	QWORD PTR __pyx_tuple__3, rax
	test	rax, rax
	jne	SHORT $LN45@Pyx_InitCa
	mov	rax, QWORD PTR __pyx_f+8
	mov	DWORD PTR __pyx_lineno, 235		; 000000ebH
	mov	DWORD PTR __pyx_clineno, 21550		; 0000542eH

; 21964:   __Pyx_GOTREF(__pyx_tuple__46);
; 21965:   __Pyx_GIVEREF(__pyx_tuple__46);
; 21966:   __pyx_codeobj__47 = (PyObject*)__Pyx_PyCode_New(3, 0, 5, 0, CO_OPTIMIZED|CO_NEWLOCALS, __pyx_empty_bytes, __pyx_empty_tuple, __pyx_empty_tuple, __pyx_tuple__46, __pyx_empty_tuple, __pyx_empty_tuple, __pyx_kp_s_stringsource, __pyx_n_s_pyx_unpickle_Enum, 1, __pyx_empty_bytes); if (unlikely(!__pyx_codeobj__47)) __PYX_ERR(2, 1, __pyx_L1_error)

	mov	QWORD PTR __pyx_filename, rax

; 21969:   __pyx_L1_error:;
; 21970:   __Pyx_RefNannyFinishContext();
; 21971:   return -1;

	or	eax, -1
$__pyx_L1_error_2$28664:

; 21972: }

	add	rsp, 120				; 00000078H
	ret	0
$LN45@Pyx_InitCa:

; 21551:   __Pyx_GOTREF(__pyx_tuple__3);
; 21552:   __Pyx_GIVEREF(__pyx_tuple__3);
; 21553: 
; 21554:   /* "C:/Python27/lib/site-packages/Cython/Includes/numpy/__init__.pxd":239
; 21555:  *             if ((flags & pybuf.PyBUF_F_CONTIGUOUS == pybuf.PyBUF_F_CONTIGUOUS)
; 21556:  *                 and not PyArray_CHKFLAGS(self, NPY_F_CONTIGUOUS)):
; 21557:  *                 raise ValueError(u"ndarray is not Fortran contiguous")             # <<<<<<<<<<<<<<
; 21558:  * 
; 21559:  *             info.buf = PyArray_DATA(self)
; 21560:  */
; 21561:   __pyx_tuple__4 = PyTuple_Pack(1, __pyx_kp_u_ndarray_is_not_Fortran_contiguou); if (unlikely(!__pyx_tuple__4)) __PYX_ERR(1, 239, __pyx_L1_error)

	mov	rdx, QWORD PTR __pyx_kp_u_ndarray_is_not_Fortran_contiguou
	mov	ecx, 1
	call	QWORD PTR __imp_PyTuple_Pack
	mov	QWORD PTR __pyx_tuple__4, rax
	test	rax, rax
	jne	SHORT $LN44@Pyx_InitCa
	mov	rax, QWORD PTR __pyx_f+8
	mov	DWORD PTR __pyx_lineno, 239		; 000000efH
	mov	DWORD PTR __pyx_clineno, 21561		; 00005439H

; 21964:   __Pyx_GOTREF(__pyx_tuple__46);
; 21965:   __Pyx_GIVEREF(__pyx_tuple__46);
; 21966:   __pyx_codeobj__47 = (PyObject*)__Pyx_PyCode_New(3, 0, 5, 0, CO_OPTIMIZED|CO_NEWLOCALS, __pyx_empty_bytes, __pyx_empty_tuple, __pyx_empty_tuple, __pyx_tuple__46, __pyx_empty_tuple, __pyx_empty_tuple, __pyx_kp_s_stringsource, __pyx_n_s_pyx_unpickle_Enum, 1, __pyx_empty_bytes); if (unlikely(!__pyx_codeobj__47)) __PYX_ERR(2, 1, __pyx_L1_error)

	mov	QWORD PTR __pyx_filename, rax

; 21969:   __pyx_L1_error:;
; 21970:   __Pyx_RefNannyFinishContext();
; 21971:   return -1;

	or	eax, -1
$__pyx_L1_error_3$28664:

; 21972: }

	add	rsp, 120				; 00000078H
	ret	0
$LN44@Pyx_InitCa:

; 21562:   __Pyx_GOTREF(__pyx_tuple__4);
; 21563:   __Pyx_GIVEREF(__pyx_tuple__4);
; 21564: 
; 21565:   /* "C:/Python27/lib/site-packages/Cython/Includes/numpy/__init__.pxd":276
; 21566:  *                 if ((descr.byteorder == c'>' and little_endian) or
; 21567:  *                     (descr.byteorder == c'<' and not little_endian)):
; 21568:  *                     raise ValueError(u"Non-native byte order not supported")             # <<<<<<<<<<<<<<
; 21569:  *                 if   t == NPY_BYTE:        f = "b"
; 21570:  *                 elif t == NPY_UBYTE:       f = "B"
; 21571:  */
; 21572:   __pyx_tuple__5 = PyTuple_Pack(1, __pyx_kp_u_Non_native_byte_order_not_suppor); if (unlikely(!__pyx_tuple__5)) __PYX_ERR(1, 276, __pyx_L1_error)

	mov	rdx, QWORD PTR __pyx_kp_u_Non_native_byte_order_not_suppor
	mov	ecx, 1
	call	QWORD PTR __imp_PyTuple_Pack
	mov	QWORD PTR __pyx_tuple__5, rax
	test	rax, rax
	jne	SHORT $LN43@Pyx_InitCa
	mov	rax, QWORD PTR __pyx_f+8
	mov	DWORD PTR __pyx_lineno, 276		; 00000114H
	mov	DWORD PTR __pyx_clineno, 21572		; 00005444H

; 21964:   __Pyx_GOTREF(__pyx_tuple__46);
; 21965:   __Pyx_GIVEREF(__pyx_tuple__46);
; 21966:   __pyx_codeobj__47 = (PyObject*)__Pyx_PyCode_New(3, 0, 5, 0, CO_OPTIMIZED|CO_NEWLOCALS, __pyx_empty_bytes, __pyx_empty_tuple, __pyx_empty_tuple, __pyx_tuple__46, __pyx_empty_tuple, __pyx_empty_tuple, __pyx_kp_s_stringsource, __pyx_n_s_pyx_unpickle_Enum, 1, __pyx_empty_bytes); if (unlikely(!__pyx_codeobj__47)) __PYX_ERR(2, 1, __pyx_L1_error)

	mov	QWORD PTR __pyx_filename, rax

; 21969:   __pyx_L1_error:;
; 21970:   __Pyx_RefNannyFinishContext();
; 21971:   return -1;

	or	eax, -1
$__pyx_L1_error_4$28664:

; 21972: }

	add	rsp, 120				; 00000078H
	ret	0
$LN43@Pyx_InitCa:

; 21573:   __Pyx_GOTREF(__pyx_tuple__5);
; 21574:   __Pyx_GIVEREF(__pyx_tuple__5);
; 21575: 
; 21576:   /* "C:/Python27/lib/site-packages/Cython/Includes/numpy/__init__.pxd":823
; 21577:  * 
; 21578:  *         if (end - f) - <int>(new_offset - offset[0]) < 15:
; 21579:  *             raise RuntimeError(u"Format string allocated too short, see comment in numpy.pxd")             # <<<<<<<<<<<<<<
; 21580:  * 
; 21581:  *         if ((child.byteorder == c'>' and little_endian) or
; 21582:  */
; 21583:   __pyx_tuple__6 = PyTuple_Pack(1, __pyx_kp_u_Format_string_allocated_too_shor); if (unlikely(!__pyx_tuple__6)) __PYX_ERR(1, 823, __pyx_L1_error)

	mov	rdx, QWORD PTR __pyx_kp_u_Format_string_allocated_too_shor
	mov	ecx, 1
	call	QWORD PTR __imp_PyTuple_Pack
	mov	QWORD PTR __pyx_tuple__6, rax
	test	rax, rax
	jne	SHORT $LN42@Pyx_InitCa
	mov	rax, QWORD PTR __pyx_f+8
	mov	DWORD PTR __pyx_lineno, 823		; 00000337H
	mov	DWORD PTR __pyx_clineno, 21583		; 0000544fH

; 21964:   __Pyx_GOTREF(__pyx_tuple__46);
; 21965:   __Pyx_GIVEREF(__pyx_tuple__46);
; 21966:   __pyx_codeobj__47 = (PyObject*)__Pyx_PyCode_New(3, 0, 5, 0, CO_OPTIMIZED|CO_NEWLOCALS, __pyx_empty_bytes, __pyx_empty_tuple, __pyx_empty_tuple, __pyx_tuple__46, __pyx_empty_tuple, __pyx_empty_tuple, __pyx_kp_s_stringsource, __pyx_n_s_pyx_unpickle_Enum, 1, __pyx_empty_bytes); if (unlikely(!__pyx_codeobj__47)) __PYX_ERR(2, 1, __pyx_L1_error)

	mov	QWORD PTR __pyx_filename, rax

; 21969:   __pyx_L1_error:;
; 21970:   __Pyx_RefNannyFinishContext();
; 21971:   return -1;

	or	eax, -1
$__pyx_L1_error_5$28664:

; 21972: }

	add	rsp, 120				; 00000078H
	ret	0
$LN42@Pyx_InitCa:

; 21584:   __Pyx_GOTREF(__pyx_tuple__6);
; 21585:   __Pyx_GIVEREF(__pyx_tuple__6);
; 21586: 
; 21587:   /* "C:/Python27/lib/site-packages/Cython/Includes/numpy/__init__.pxd":827
; 21588:  *         if ((child.byteorder == c'>' and little_endian) or
; 21589:  *             (child.byteorder == c'<' and not little_endian)):
; 21590:  *             raise ValueError(u"Non-native byte order not supported")             # <<<<<<<<<<<<<<
; 21591:  *             # One could encode it in the format string and have Cython
; 21592:  *             # complain instead, BUT: < and > in format strings also imply
; 21593:  */
; 21594:   __pyx_tuple__7 = PyTuple_Pack(1, __pyx_kp_u_Non_native_byte_order_not_suppor); if (unlikely(!__pyx_tuple__7)) __PYX_ERR(1, 827, __pyx_L1_error)

	mov	rdx, QWORD PTR __pyx_kp_u_Non_native_byte_order_not_suppor
	mov	ecx, 1
	call	QWORD PTR __imp_PyTuple_Pack
	mov	QWORD PTR __pyx_tuple__7, rax
	test	rax, rax
	jne	SHORT $LN41@Pyx_InitCa
	mov	rax, QWORD PTR __pyx_f+8
	mov	DWORD PTR __pyx_lineno, 827		; 0000033bH
	mov	DWORD PTR __pyx_clineno, 21594		; 0000545aH

; 21964:   __Pyx_GOTREF(__pyx_tuple__46);
; 21965:   __Pyx_GIVEREF(__pyx_tuple__46);
; 21966:   __pyx_codeobj__47 = (PyObject*)__Pyx_PyCode_New(3, 0, 5, 0, CO_OPTIMIZED|CO_NEWLOCALS, __pyx_empty_bytes, __pyx_empty_tuple, __pyx_empty_tuple, __pyx_tuple__46, __pyx_empty_tuple, __pyx_empty_tuple, __pyx_kp_s_stringsource, __pyx_n_s_pyx_unpickle_Enum, 1, __pyx_empty_bytes); if (unlikely(!__pyx_codeobj__47)) __PYX_ERR(2, 1, __pyx_L1_error)

	mov	QWORD PTR __pyx_filename, rax

; 21969:   __pyx_L1_error:;
; 21970:   __Pyx_RefNannyFinishContext();
; 21971:   return -1;

	or	eax, -1
$__pyx_L1_error_6$28664:

; 21972: }

	add	rsp, 120				; 00000078H
	ret	0
$LN41@Pyx_InitCa:

; 21595:   __Pyx_GOTREF(__pyx_tuple__7);
; 21596:   __Pyx_GIVEREF(__pyx_tuple__7);
; 21597: 
; 21598:   /* "C:/Python27/lib/site-packages/Cython/Includes/numpy/__init__.pxd":847
; 21599:  *             t = child.type_num
; 21600:  *             if end - f < 5:
; 21601:  *                 raise RuntimeError(u"Format string allocated too short.")             # <<<<<<<<<<<<<<
; 21602:  * 
; 21603:  *             # Until ticket #99 is fixed, use integers to avoid warnings
; 21604:  */
; 21605:   __pyx_tuple__8 = PyTuple_Pack(1, __pyx_kp_u_Format_string_allocated_too_shor_2); if (unlikely(!__pyx_tuple__8)) __PYX_ERR(1, 847, __pyx_L1_error)

	mov	rdx, QWORD PTR __pyx_kp_u_Format_string_allocated_too_shor_2
	mov	ecx, 1
	call	QWORD PTR __imp_PyTuple_Pack
	mov	QWORD PTR __pyx_tuple__8, rax
	test	rax, rax
	jne	SHORT $LN40@Pyx_InitCa
	mov	rax, QWORD PTR __pyx_f+8
	mov	DWORD PTR __pyx_lineno, 847		; 0000034fH
	mov	DWORD PTR __pyx_clineno, 21605		; 00005465H

; 21964:   __Pyx_GOTREF(__pyx_tuple__46);
; 21965:   __Pyx_GIVEREF(__pyx_tuple__46);
; 21966:   __pyx_codeobj__47 = (PyObject*)__Pyx_PyCode_New(3, 0, 5, 0, CO_OPTIMIZED|CO_NEWLOCALS, __pyx_empty_bytes, __pyx_empty_tuple, __pyx_empty_tuple, __pyx_tuple__46, __pyx_empty_tuple, __pyx_empty_tuple, __pyx_kp_s_stringsource, __pyx_n_s_pyx_unpickle_Enum, 1, __pyx_empty_bytes); if (unlikely(!__pyx_codeobj__47)) __PYX_ERR(2, 1, __pyx_L1_error)

	mov	QWORD PTR __pyx_filename, rax

; 21969:   __pyx_L1_error:;
; 21970:   __Pyx_RefNannyFinishContext();
; 21971:   return -1;

	or	eax, -1
$__pyx_L1_error_7$28664:

; 21972: }

	add	rsp, 120				; 00000078H
	ret	0
$LN40@Pyx_InitCa:

; 21606:   __Pyx_GOTREF(__pyx_tuple__8);
; 21607:   __Pyx_GIVEREF(__pyx_tuple__8);
; 21608: 
; 21609:   /* "C:/Python27/lib/site-packages/Cython/Includes/numpy/__init__.pxd":1013
; 21610:  *         _import_array()
; 21611:  *     except Exception:
; 21612:  *         raise ImportError("numpy.core.multiarray failed to import")             # <<<<<<<<<<<<<<
; 21613:  * 
; 21614:  * cdef inline int import_umath() except -1:
; 21615:  */
; 21616:   __pyx_tuple__9 = PyTuple_Pack(1, __pyx_kp_s_numpy_core_multiarray_failed_to); if (unlikely(!__pyx_tuple__9)) __PYX_ERR(1, 1013, __pyx_L1_error)

	mov	rdx, QWORD PTR __pyx_kp_s_numpy_core_multiarray_failed_to
	mov	ecx, 1
	call	QWORD PTR __imp_PyTuple_Pack
	mov	QWORD PTR __pyx_tuple__9, rax
	test	rax, rax
	jne	SHORT $LN39@Pyx_InitCa
	mov	rax, QWORD PTR __pyx_f+8
	mov	DWORD PTR __pyx_lineno, 1013		; 000003f5H
	mov	DWORD PTR __pyx_clineno, 21616		; 00005470H

; 21964:   __Pyx_GOTREF(__pyx_tuple__46);
; 21965:   __Pyx_GIVEREF(__pyx_tuple__46);
; 21966:   __pyx_codeobj__47 = (PyObject*)__Pyx_PyCode_New(3, 0, 5, 0, CO_OPTIMIZED|CO_NEWLOCALS, __pyx_empty_bytes, __pyx_empty_tuple, __pyx_empty_tuple, __pyx_tuple__46, __pyx_empty_tuple, __pyx_empty_tuple, __pyx_kp_s_stringsource, __pyx_n_s_pyx_unpickle_Enum, 1, __pyx_empty_bytes); if (unlikely(!__pyx_codeobj__47)) __PYX_ERR(2, 1, __pyx_L1_error)

	mov	QWORD PTR __pyx_filename, rax

; 21969:   __pyx_L1_error:;
; 21970:   __Pyx_RefNannyFinishContext();
; 21971:   return -1;

	or	eax, -1
$__pyx_L1_error_8$28664:

; 21972: }

	add	rsp, 120				; 00000078H
	ret	0
$LN39@Pyx_InitCa:

; 21617:   __Pyx_GOTREF(__pyx_tuple__9);
; 21618:   __Pyx_GIVEREF(__pyx_tuple__9);
; 21619: 
; 21620:   /* "C:/Python27/lib/site-packages/Cython/Includes/numpy/__init__.pxd":1019
; 21621:  *         _import_umath()
; 21622:  *     except Exception:
; 21623:  *         raise ImportError("numpy.core.umath failed to import")             # <<<<<<<<<<<<<<
; 21624:  * 
; 21625:  * cdef inline int import_ufunc() except -1:
; 21626:  */
; 21627:   __pyx_tuple__10 = PyTuple_Pack(1, __pyx_kp_s_numpy_core_umath_failed_to_impor); if (unlikely(!__pyx_tuple__10)) __PYX_ERR(1, 1019, __pyx_L1_error)

	mov	rdx, QWORD PTR __pyx_kp_s_numpy_core_umath_failed_to_impor
	mov	ecx, 1
	call	QWORD PTR __imp_PyTuple_Pack
	mov	QWORD PTR __pyx_tuple__10, rax
	test	rax, rax
	jne	SHORT $LN38@Pyx_InitCa
	mov	rax, QWORD PTR __pyx_f+8
	mov	DWORD PTR __pyx_lineno, 1019		; 000003fbH
	mov	DWORD PTR __pyx_clineno, 21627		; 0000547bH

; 21964:   __Pyx_GOTREF(__pyx_tuple__46);
; 21965:   __Pyx_GIVEREF(__pyx_tuple__46);
; 21966:   __pyx_codeobj__47 = (PyObject*)__Pyx_PyCode_New(3, 0, 5, 0, CO_OPTIMIZED|CO_NEWLOCALS, __pyx_empty_bytes, __pyx_empty_tuple, __pyx_empty_tuple, __pyx_tuple__46, __pyx_empty_tuple, __pyx_empty_tuple, __pyx_kp_s_stringsource, __pyx_n_s_pyx_unpickle_Enum, 1, __pyx_empty_bytes); if (unlikely(!__pyx_codeobj__47)) __PYX_ERR(2, 1, __pyx_L1_error)

	mov	QWORD PTR __pyx_filename, rax

; 21969:   __pyx_L1_error:;
; 21970:   __Pyx_RefNannyFinishContext();
; 21971:   return -1;

	or	eax, -1
$__pyx_L1_error_9$28664:

; 21972: }

	add	rsp, 120				; 00000078H
	ret	0
$LN38@Pyx_InitCa:

; 21628:   __Pyx_GOTREF(__pyx_tuple__10);
; 21629:   __Pyx_GIVEREF(__pyx_tuple__10);
; 21630: 
; 21631:   /* "C:/Python27/lib/site-packages/Cython/Includes/numpy/__init__.pxd":1025
; 21632:  *         _import_umath()
; 21633:  *     except Exception:
; 21634:  *         raise ImportError("numpy.core.umath failed to import")             # <<<<<<<<<<<<<<
; 21635:  */
; 21636:   __pyx_tuple__11 = PyTuple_Pack(1, __pyx_kp_s_numpy_core_umath_failed_to_impor); if (unlikely(!__pyx_tuple__11)) __PYX_ERR(1, 1025, __pyx_L1_error)

	mov	rdx, QWORD PTR __pyx_kp_s_numpy_core_umath_failed_to_impor
	mov	ecx, 1
	call	QWORD PTR __imp_PyTuple_Pack
	mov	QWORD PTR __pyx_tuple__11, rax
	test	rax, rax
	jne	SHORT $LN37@Pyx_InitCa
	mov	rax, QWORD PTR __pyx_f+8
	mov	DWORD PTR __pyx_lineno, 1025		; 00000401H
	mov	DWORD PTR __pyx_clineno, 21636		; 00005484H

; 21964:   __Pyx_GOTREF(__pyx_tuple__46);
; 21965:   __Pyx_GIVEREF(__pyx_tuple__46);
; 21966:   __pyx_codeobj__47 = (PyObject*)__Pyx_PyCode_New(3, 0, 5, 0, CO_OPTIMIZED|CO_NEWLOCALS, __pyx_empty_bytes, __pyx_empty_tuple, __pyx_empty_tuple, __pyx_tuple__46, __pyx_empty_tuple, __pyx_empty_tuple, __pyx_kp_s_stringsource, __pyx_n_s_pyx_unpickle_Enum, 1, __pyx_empty_bytes); if (unlikely(!__pyx_codeobj__47)) __PYX_ERR(2, 1, __pyx_L1_error)

	mov	QWORD PTR __pyx_filename, rax

; 21969:   __pyx_L1_error:;
; 21970:   __Pyx_RefNannyFinishContext();
; 21971:   return -1;

	or	eax, -1
$__pyx_L1_error_10$28664:

; 21972: }

	add	rsp, 120				; 00000078H
	ret	0
$LN37@Pyx_InitCa:

; 21637:   __Pyx_GOTREF(__pyx_tuple__11);
; 21638:   __Pyx_GIVEREF(__pyx_tuple__11);
; 21639: 
; 21640:   /* "View.MemoryView":131
; 21641:  * 
; 21642:  *         if not self.ndim:
; 21643:  *             raise ValueError("Empty shape tuple for cython.array")             # <<<<<<<<<<<<<<
; 21644:  * 
; 21645:  *         if itemsize <= 0:
; 21646:  */
; 21647:   __pyx_tuple__12 = PyTuple_Pack(1, __pyx_kp_s_Empty_shape_tuple_for_cython_arr); if (unlikely(!__pyx_tuple__12)) __PYX_ERR(2, 131, __pyx_L1_error)

	mov	rdx, QWORD PTR __pyx_kp_s_Empty_shape_tuple_for_cython_arr
	mov	ecx, 1
	call	QWORD PTR __imp_PyTuple_Pack
	mov	QWORD PTR __pyx_tuple__12, rax
	test	rax, rax
	jne	SHORT $LN36@Pyx_InitCa
	mov	DWORD PTR __pyx_lineno, 131		; 00000083H
	mov	DWORD PTR __pyx_clineno, 21647		; 0000548fH
	jmp	$LN51@Pyx_InitCa
$LN36@Pyx_InitCa:

; 21648:   __Pyx_GOTREF(__pyx_tuple__12);
; 21649:   __Pyx_GIVEREF(__pyx_tuple__12);
; 21650: 
; 21651:   /* "View.MemoryView":134
; 21652:  * 
; 21653:  *         if itemsize <= 0:
; 21654:  *             raise ValueError("itemsize <= 0 for cython.array")             # <<<<<<<<<<<<<<
; 21655:  * 
; 21656:  *         if not isinstance(format, bytes):
; 21657:  */
; 21658:   __pyx_tuple__13 = PyTuple_Pack(1, __pyx_kp_s_itemsize_0_for_cython_array); if (unlikely(!__pyx_tuple__13)) __PYX_ERR(2, 134, __pyx_L1_error)

	mov	rdx, QWORD PTR __pyx_kp_s_itemsize_0_for_cython_array
	mov	ecx, 1
	call	QWORD PTR __imp_PyTuple_Pack
	mov	QWORD PTR __pyx_tuple__13, rax
	test	rax, rax
	jne	SHORT $LN35@Pyx_InitCa
	mov	DWORD PTR __pyx_lineno, 134		; 00000086H
	mov	DWORD PTR __pyx_clineno, 21658		; 0000549aH
	jmp	$LN51@Pyx_InitCa
$LN35@Pyx_InitCa:

; 21659:   __Pyx_GOTREF(__pyx_tuple__13);
; 21660:   __Pyx_GIVEREF(__pyx_tuple__13);
; 21661: 
; 21662:   /* "View.MemoryView":137
; 21663:  * 
; 21664:  *         if not isinstance(format, bytes):
; 21665:  *             format = format.encode('ASCII')             # <<<<<<<<<<<<<<
; 21666:  *         self._format = format  # keep a reference to the byte string
; 21667:  *         self.format = self._format
; 21668:  */
; 21669:   __pyx_tuple__14 = PyTuple_Pack(1, __pyx_n_s_ASCII); if (unlikely(!__pyx_tuple__14)) __PYX_ERR(2, 137, __pyx_L1_error)

	mov	rdx, QWORD PTR __pyx_n_s_ASCII
	mov	ecx, 1
	call	QWORD PTR __imp_PyTuple_Pack
	mov	QWORD PTR __pyx_tuple__14, rax
	test	rax, rax
	jne	SHORT $LN34@Pyx_InitCa
	mov	DWORD PTR __pyx_lineno, 137		; 00000089H
	mov	DWORD PTR __pyx_clineno, 21669		; 000054a5H
	jmp	$LN51@Pyx_InitCa
$LN34@Pyx_InitCa:

; 21670:   __Pyx_GOTREF(__pyx_tuple__14);
; 21671:   __Pyx_GIVEREF(__pyx_tuple__14);
; 21672: 
; 21673:   /* "View.MemoryView":146
; 21674:  * 
; 21675:  *         if not self._shape:
; 21676:  *             raise MemoryError("unable to allocate shape and strides.")             # <<<<<<<<<<<<<<
; 21677:  * 
; 21678:  * 
; 21679:  */
; 21680:   __pyx_tuple__15 = PyTuple_Pack(1, __pyx_kp_s_unable_to_allocate_shape_and_str); if (unlikely(!__pyx_tuple__15)) __PYX_ERR(2, 146, __pyx_L1_error)

	mov	rdx, QWORD PTR __pyx_kp_s_unable_to_allocate_shape_and_str
	mov	ecx, 1
	call	QWORD PTR __imp_PyTuple_Pack
	mov	QWORD PTR __pyx_tuple__15, rax
	test	rax, rax
	jne	SHORT $LN33@Pyx_InitCa
	mov	DWORD PTR __pyx_lineno, 146		; 00000092H
	mov	DWORD PTR __pyx_clineno, 21680		; 000054b0H
	jmp	$LN51@Pyx_InitCa
$LN33@Pyx_InitCa:

; 21681:   __Pyx_GOTREF(__pyx_tuple__15);
; 21682:   __Pyx_GIVEREF(__pyx_tuple__15);
; 21683: 
; 21684:   /* "View.MemoryView":174
; 21685:  *             self.data = <char *>malloc(self.len)
; 21686:  *             if not self.data:
; 21687:  *                 raise MemoryError("unable to allocate array data.")             # <<<<<<<<<<<<<<
; 21688:  * 
; 21689:  *             if self.dtype_is_object:
; 21690:  */
; 21691:   __pyx_tuple__16 = PyTuple_Pack(1, __pyx_kp_s_unable_to_allocate_array_data); if (unlikely(!__pyx_tuple__16)) __PYX_ERR(2, 174, __pyx_L1_error)

	mov	rdx, QWORD PTR __pyx_kp_s_unable_to_allocate_array_data
	mov	ecx, 1
	call	QWORD PTR __imp_PyTuple_Pack
	mov	QWORD PTR __pyx_tuple__16, rax
	test	rax, rax
	jne	SHORT $LN32@Pyx_InitCa
	mov	DWORD PTR __pyx_lineno, 174		; 000000aeH
	mov	DWORD PTR __pyx_clineno, 21691		; 000054bbH
	jmp	$LN51@Pyx_InitCa
$LN32@Pyx_InitCa:

; 21692:   __Pyx_GOTREF(__pyx_tuple__16);
; 21693:   __Pyx_GIVEREF(__pyx_tuple__16);
; 21694: 
; 21695:   /* "View.MemoryView":190
; 21696:  *             bufmode = PyBUF_F_CONTIGUOUS | PyBUF_ANY_CONTIGUOUS
; 21697:  *         if not (flags & bufmode):
; 21698:  *             raise ValueError("Can only create a buffer that is contiguous in memory.")             # <<<<<<<<<<<<<<
; 21699:  *         info.buf = self.data
; 21700:  *         info.len = self.len
; 21701:  */
; 21702:   __pyx_tuple__17 = PyTuple_Pack(1, __pyx_kp_s_Can_only_create_a_buffer_that_is); if (unlikely(!__pyx_tuple__17)) __PYX_ERR(2, 190, __pyx_L1_error)

	mov	rdx, QWORD PTR __pyx_kp_s_Can_only_create_a_buffer_that_is
	mov	ecx, 1
	call	QWORD PTR __imp_PyTuple_Pack
	mov	QWORD PTR __pyx_tuple__17, rax
	test	rax, rax
	jne	SHORT $LN31@Pyx_InitCa
	mov	DWORD PTR __pyx_lineno, 190		; 000000beH
	mov	DWORD PTR __pyx_clineno, 21702		; 000054c6H
	jmp	$LN51@Pyx_InitCa
$LN31@Pyx_InitCa:

; 21703:   __Pyx_GOTREF(__pyx_tuple__17);
; 21704:   __Pyx_GIVEREF(__pyx_tuple__17);
; 21705: 
; 21706:   /* "(tree fragment)":2
; 21707:  * def __reduce_cython__(self):
; 21708:  *     raise TypeError("no default __reduce__ due to non-trivial __cinit__")             # <<<<<<<<<<<<<<
; 21709:  * def __setstate_cython__(self, __pyx_state):
; 21710:  *     raise TypeError("no default __reduce__ due to non-trivial __cinit__")
; 21711:  */
; 21712:   __pyx_tuple__18 = PyTuple_Pack(1, __pyx_kp_s_no_default___reduce___due_to_non); if (unlikely(!__pyx_tuple__18)) __PYX_ERR(2, 2, __pyx_L1_error)

	mov	rdx, QWORD PTR __pyx_kp_s_no_default___reduce___due_to_non
	mov	ecx, 1
	call	QWORD PTR __imp_PyTuple_Pack
	mov	QWORD PTR __pyx_tuple__18, rax
	test	rax, rax
	jne	SHORT $LN30@Pyx_InitCa
	mov	DWORD PTR __pyx_lineno, 2
	mov	DWORD PTR __pyx_clineno, 21712		; 000054d0H
	jmp	$LN51@Pyx_InitCa
$LN30@Pyx_InitCa:

; 21713:   __Pyx_GOTREF(__pyx_tuple__18);
; 21714:   __Pyx_GIVEREF(__pyx_tuple__18);
; 21715: 
; 21716:   /* "(tree fragment)":4
; 21717:  *     raise TypeError("no default __reduce__ due to non-trivial __cinit__")
; 21718:  * def __setstate_cython__(self, __pyx_state):
; 21719:  *     raise TypeError("no default __reduce__ due to non-trivial __cinit__")             # <<<<<<<<<<<<<<
; 21720:  */
; 21721:   __pyx_tuple__19 = PyTuple_Pack(1, __pyx_kp_s_no_default___reduce___due_to_non); if (unlikely(!__pyx_tuple__19)) __PYX_ERR(2, 4, __pyx_L1_error)

	mov	rdx, QWORD PTR __pyx_kp_s_no_default___reduce___due_to_non
	mov	ecx, 1
	call	QWORD PTR __imp_PyTuple_Pack
	mov	QWORD PTR __pyx_tuple__19, rax
	test	rax, rax
	jne	SHORT $LN29@Pyx_InitCa
	mov	DWORD PTR __pyx_lineno, 4
	mov	DWORD PTR __pyx_clineno, 21721		; 000054d9H
	jmp	$LN51@Pyx_InitCa
$LN29@Pyx_InitCa:

; 21722:   __Pyx_GOTREF(__pyx_tuple__19);
; 21723:   __Pyx_GIVEREF(__pyx_tuple__19);
; 21724: 
; 21725:   /* "View.MemoryView":486
; 21726:  *             result = struct.unpack(self.view.format, bytesitem)
; 21727:  *         except struct.error:
; 21728:  *             raise ValueError("Unable to convert item to object")             # <<<<<<<<<<<<<<
; 21729:  *         else:
; 21730:  *             if len(self.view.format) == 1:
; 21731:  */
; 21732:   __pyx_tuple__20 = PyTuple_Pack(1, __pyx_kp_s_Unable_to_convert_item_to_object); if (unlikely(!__pyx_tuple__20)) __PYX_ERR(2, 486, __pyx_L1_error)

	mov	rdx, QWORD PTR __pyx_kp_s_Unable_to_convert_item_to_object
	mov	ecx, 1
	call	QWORD PTR __imp_PyTuple_Pack
	mov	QWORD PTR __pyx_tuple__20, rax
	test	rax, rax
	jne	SHORT $LN28@Pyx_InitCa
	mov	DWORD PTR __pyx_lineno, 486		; 000001e6H
	mov	DWORD PTR __pyx_clineno, 21732		; 000054e4H
	jmp	$LN51@Pyx_InitCa
$LN28@Pyx_InitCa:

; 21733:   __Pyx_GOTREF(__pyx_tuple__20);
; 21734:   __Pyx_GIVEREF(__pyx_tuple__20);
; 21735: 
; 21736:   /* "View.MemoryView":558
; 21737:  *         if self.view.strides == NULL:
; 21738:  * 
; 21739:  *             raise ValueError("Buffer view does not expose strides")             # <<<<<<<<<<<<<<
; 21740:  * 
; 21741:  *         return tuple([stride for stride in self.view.strides[:self.view.ndim]])
; 21742:  */
; 21743:   __pyx_tuple__21 = PyTuple_Pack(1, __pyx_kp_s_Buffer_view_does_not_expose_stri); if (unlikely(!__pyx_tuple__21)) __PYX_ERR(2, 558, __pyx_L1_error)

	mov	rdx, QWORD PTR __pyx_kp_s_Buffer_view_does_not_expose_stri
	mov	ecx, 1
	call	QWORD PTR __imp_PyTuple_Pack
	mov	QWORD PTR __pyx_tuple__21, rax
	test	rax, rax
	jne	SHORT $LN27@Pyx_InitCa
	mov	DWORD PTR __pyx_lineno, 558		; 0000022eH
	mov	DWORD PTR __pyx_clineno, 21743		; 000054efH
	jmp	$LN51@Pyx_InitCa
$LN27@Pyx_InitCa:

; 21744:   __Pyx_GOTREF(__pyx_tuple__21);
; 21745:   __Pyx_GIVEREF(__pyx_tuple__21);
; 21746: 
; 21747:   /* "View.MemoryView":565
; 21748:  *     def suboffsets(self):
; 21749:  *         if self.view.suboffsets == NULL:
; 21750:  *             return (-1,) * self.view.ndim             # <<<<<<<<<<<<<<
; 21751:  * 
; 21752:  *         return tuple([suboffset for suboffset in self.view.suboffsets[:self.view.ndim]])
; 21753:  */
; 21754:   __pyx_tuple__22 = PyTuple_New(1); if (unlikely(!__pyx_tuple__22)) __PYX_ERR(2, 565, __pyx_L1_error)

	mov	ecx, 1
	call	QWORD PTR __imp_PyTuple_New
	mov	r11, rax
	mov	QWORD PTR __pyx_tuple__22, rax
	test	rax, rax
	jne	SHORT $LN26@Pyx_InitCa
	mov	DWORD PTR __pyx_lineno, 565		; 00000235H
	mov	DWORD PTR __pyx_clineno, 21754		; 000054faH
	jmp	$LN51@Pyx_InitCa
$LN26@Pyx_InitCa:

; 21755:   __Pyx_GOTREF(__pyx_tuple__22);
; 21756:   __Pyx_INCREF(__pyx_int_neg_1);

	mov	rax, QWORD PTR __pyx_int_neg_1

; 21757:   __Pyx_GIVEREF(__pyx_int_neg_1);
; 21758:   PyTuple_SET_ITEM(__pyx_tuple__22, 0, __pyx_int_neg_1);
; 21759:   __Pyx_GIVEREF(__pyx_tuple__22);
; 21760: 
; 21761:   /* "(tree fragment)":2
; 21762:  * def __reduce_cython__(self):
; 21763:  *     raise TypeError("no default __reduce__ due to non-trivial __cinit__")             # <<<<<<<<<<<<<<
; 21764:  * def __setstate_cython__(self, __pyx_state):
; 21765:  *     raise TypeError("no default __reduce__ due to non-trivial __cinit__")
; 21766:  */
; 21767:   __pyx_tuple__23 = PyTuple_Pack(1, __pyx_kp_s_no_default___reduce___due_to_non); if (unlikely(!__pyx_tuple__23)) __PYX_ERR(2, 2, __pyx_L1_error)

	mov	ecx, 1
	inc	QWORD PTR [rax]
	mov	QWORD PTR [r11+24], rax
	mov	rdx, QWORD PTR __pyx_kp_s_no_default___reduce___due_to_non
	call	QWORD PTR __imp_PyTuple_Pack
	mov	QWORD PTR __pyx_tuple__23, rax
	test	rax, rax
	jne	SHORT $LN25@Pyx_InitCa
	mov	DWORD PTR __pyx_lineno, 2
	mov	DWORD PTR __pyx_clineno, 21767		; 00005507H
	jmp	$LN51@Pyx_InitCa
$LN25@Pyx_InitCa:

; 21768:   __Pyx_GOTREF(__pyx_tuple__23);
; 21769:   __Pyx_GIVEREF(__pyx_tuple__23);
; 21770: 
; 21771:   /* "(tree fragment)":4
; 21772:  *     raise TypeError("no default __reduce__ due to non-trivial __cinit__")
; 21773:  * def __setstate_cython__(self, __pyx_state):
; 21774:  *     raise TypeError("no default __reduce__ due to non-trivial __cinit__")             # <<<<<<<<<<<<<<
; 21775:  */
; 21776:   __pyx_tuple__24 = PyTuple_Pack(1, __pyx_kp_s_no_default___reduce___due_to_non); if (unlikely(!__pyx_tuple__24)) __PYX_ERR(2, 4, __pyx_L1_error)

	mov	rdx, QWORD PTR __pyx_kp_s_no_default___reduce___due_to_non
	mov	ecx, 1
	call	QWORD PTR __imp_PyTuple_Pack
	mov	QWORD PTR __pyx_tuple__24, rax
	test	rax, rax
	jne	SHORT $LN24@Pyx_InitCa
	mov	DWORD PTR __pyx_lineno, 4
	mov	DWORD PTR __pyx_clineno, 21776		; 00005510H
	jmp	$LN51@Pyx_InitCa
$LN24@Pyx_InitCa:

; 21777:   __Pyx_GOTREF(__pyx_tuple__24);
; 21778:   __Pyx_GIVEREF(__pyx_tuple__24);
; 21779: 
; 21780:   /* "View.MemoryView":670
; 21781:  *         if item is Ellipsis:
; 21782:  *             if not seen_ellipsis:
; 21783:  *                 result.extend([slice(None)] * (ndim - len(tup) + 1))             # <<<<<<<<<<<<<<
; 21784:  *                 seen_ellipsis = True
; 21785:  *             else:
; 21786:  */
; 21787:   __pyx_slice__25 = PySlice_New(Py_None, Py_None, Py_None); if (unlikely(!__pyx_slice__25)) __PYX_ERR(2, 670, __pyx_L1_error)

	mov	rcx, QWORD PTR __imp__Py_NoneStruct
	mov	r8, rcx
	mov	rdx, rcx
	call	QWORD PTR __imp_PySlice_New
	mov	QWORD PTR __pyx_slice__25, rax
	test	rax, rax
	jne	SHORT $LN23@Pyx_InitCa
	mov	DWORD PTR __pyx_lineno, 670		; 0000029eH
	mov	DWORD PTR __pyx_clineno, 21787		; 0000551bH
	jmp	$LN51@Pyx_InitCa
$LN23@Pyx_InitCa:

; 21788:   __Pyx_GOTREF(__pyx_slice__25);
; 21789:   __Pyx_GIVEREF(__pyx_slice__25);
; 21790: 
; 21791:   /* "View.MemoryView":673
; 21792:  *                 seen_ellipsis = True
; 21793:  *             else:
; 21794:  *                 result.append(slice(None))             # <<<<<<<<<<<<<<
; 21795:  *             have_slices = True
; 21796:  *         else:
; 21797:  */
; 21798:   __pyx_slice__26 = PySlice_New(Py_None, Py_None, Py_None); if (unlikely(!__pyx_slice__26)) __PYX_ERR(2, 673, __pyx_L1_error)

	mov	rcx, QWORD PTR __imp__Py_NoneStruct
	mov	r8, rcx
	mov	rdx, rcx
	call	QWORD PTR __imp_PySlice_New
	mov	QWORD PTR __pyx_slice__26, rax
	test	rax, rax
	jne	SHORT $LN22@Pyx_InitCa
	mov	DWORD PTR __pyx_lineno, 673		; 000002a1H
	mov	DWORD PTR __pyx_clineno, 21798		; 00005526H
	jmp	$LN51@Pyx_InitCa
$LN22@Pyx_InitCa:

; 21799:   __Pyx_GOTREF(__pyx_slice__26);
; 21800:   __Pyx_GIVEREF(__pyx_slice__26);
; 21801: 
; 21802:   /* "View.MemoryView":684
; 21803:  *     nslices = ndim - len(result)
; 21804:  *     if nslices:
; 21805:  *         result.extend([slice(None)] * nslices)             # <<<<<<<<<<<<<<
; 21806:  * 
; 21807:  *     return have_slices or nslices, tuple(result)
; 21808:  */
; 21809:   __pyx_slice__27 = PySlice_New(Py_None, Py_None, Py_None); if (unlikely(!__pyx_slice__27)) __PYX_ERR(2, 684, __pyx_L1_error)

	mov	rcx, QWORD PTR __imp__Py_NoneStruct
	mov	r8, rcx
	mov	rdx, rcx
	call	QWORD PTR __imp_PySlice_New
	mov	QWORD PTR __pyx_slice__27, rax
	test	rax, rax
	jne	SHORT $LN21@Pyx_InitCa
	mov	DWORD PTR __pyx_lineno, 684		; 000002acH
	mov	DWORD PTR __pyx_clineno, 21809		; 00005531H
	jmp	$LN51@Pyx_InitCa
$LN21@Pyx_InitCa:

; 21810:   __Pyx_GOTREF(__pyx_slice__27);
; 21811:   __Pyx_GIVEREF(__pyx_slice__27);
; 21812: 
; 21813:   /* "View.MemoryView":691
; 21814:  *     for suboffset in suboffsets[:ndim]:
; 21815:  *         if suboffset >= 0:
; 21816:  *             raise ValueError("Indirect dimensions not supported")             # <<<<<<<<<<<<<<
; 21817:  * 
; 21818:  * 
; 21819:  */
; 21820:   __pyx_tuple__28 = PyTuple_Pack(1, __pyx_kp_s_Indirect_dimensions_not_supporte); if (unlikely(!__pyx_tuple__28)) __PYX_ERR(2, 691, __pyx_L1_error)

	mov	rdx, QWORD PTR __pyx_kp_s_Indirect_dimensions_not_supporte
	mov	ecx, 1
	call	QWORD PTR __imp_PyTuple_Pack
	mov	QWORD PTR __pyx_tuple__28, rax
	test	rax, rax
	jne	SHORT $LN20@Pyx_InitCa
	mov	DWORD PTR __pyx_lineno, 691		; 000002b3H
	mov	DWORD PTR __pyx_clineno, 21820		; 0000553cH
	jmp	$LN51@Pyx_InitCa
$LN20@Pyx_InitCa:

; 21821:   __Pyx_GOTREF(__pyx_tuple__28);
; 21822:   __Pyx_GIVEREF(__pyx_tuple__28);
; 21823: 
; 21824:   /* "(tree fragment)":2
; 21825:  * def __reduce_cython__(self):
; 21826:  *     raise TypeError("no default __reduce__ due to non-trivial __cinit__")             # <<<<<<<<<<<<<<
; 21827:  * def __setstate_cython__(self, __pyx_state):
; 21828:  *     raise TypeError("no default __reduce__ due to non-trivial __cinit__")
; 21829:  */
; 21830:   __pyx_tuple__29 = PyTuple_Pack(1, __pyx_kp_s_no_default___reduce___due_to_non); if (unlikely(!__pyx_tuple__29)) __PYX_ERR(2, 2, __pyx_L1_error)

	mov	rdx, QWORD PTR __pyx_kp_s_no_default___reduce___due_to_non
	mov	ecx, 1
	call	QWORD PTR __imp_PyTuple_Pack
	mov	QWORD PTR __pyx_tuple__29, rax
	test	rax, rax
	jne	SHORT $LN19@Pyx_InitCa
	mov	DWORD PTR __pyx_lineno, 2
	mov	DWORD PTR __pyx_clineno, 21830		; 00005546H
	jmp	$LN51@Pyx_InitCa
$LN19@Pyx_InitCa:

; 21831:   __Pyx_GOTREF(__pyx_tuple__29);
; 21832:   __Pyx_GIVEREF(__pyx_tuple__29);
; 21833: 
; 21834:   /* "(tree fragment)":4
; 21835:  *     raise TypeError("no default __reduce__ due to non-trivial __cinit__")
; 21836:  * def __setstate_cython__(self, __pyx_state):
; 21837:  *     raise TypeError("no default __reduce__ due to non-trivial __cinit__")             # <<<<<<<<<<<<<<
; 21838:  */
; 21839:   __pyx_tuple__30 = PyTuple_Pack(1, __pyx_kp_s_no_default___reduce___due_to_non); if (unlikely(!__pyx_tuple__30)) __PYX_ERR(2, 4, __pyx_L1_error)

	mov	rdx, QWORD PTR __pyx_kp_s_no_default___reduce___due_to_non
	mov	ecx, 1
	call	QWORD PTR __imp_PyTuple_Pack
	mov	QWORD PTR __pyx_tuple__30, rax
	test	rax, rax
	jne	SHORT $LN18@Pyx_InitCa
	mov	DWORD PTR __pyx_lineno, 4
	mov	DWORD PTR __pyx_clineno, 21839		; 0000554fH
	jmp	$LN51@Pyx_InitCa
$LN18@Pyx_InitCa:

; 21840:   __Pyx_GOTREF(__pyx_tuple__30);
; 21841:   __Pyx_GIVEREF(__pyx_tuple__30);
; 21842: 
; 21843:   /* "rsrpsinr.pyx":22
; 21844:  *     DTYPE_t[:] avv
; 21845:  * 
; 21846:  * def degree_to_rad(double d):             # <<<<<<<<<<<<<<
; 21847:  *     return d*pi180
; 21848:  * 
; 21849:  */
; 21850:   __pyx_tuple__31 = PyTuple_Pack(2, __pyx_n_s_d, __pyx_n_s_d); if (unlikely(!__pyx_tuple__31)) __PYX_ERR(0, 22, __pyx_L1_error)

	mov	rdx, QWORD PTR __pyx_n_s_d
	mov	ecx, 2
	mov	r8, rdx
	call	QWORD PTR __imp_PyTuple_Pack
	mov	r11, rax
	mov	QWORD PTR __pyx_tuple__31, rax
	test	rax, rax
	jne	SHORT $LN17@Pyx_InitCa
	mov	rax, QWORD PTR __pyx_f
	mov	DWORD PTR __pyx_lineno, 22
	mov	DWORD PTR __pyx_clineno, 21850		; 0000555aH

; 21964:   __Pyx_GOTREF(__pyx_tuple__46);
; 21965:   __Pyx_GIVEREF(__pyx_tuple__46);
; 21966:   __pyx_codeobj__47 = (PyObject*)__Pyx_PyCode_New(3, 0, 5, 0, CO_OPTIMIZED|CO_NEWLOCALS, __pyx_empty_bytes, __pyx_empty_tuple, __pyx_empty_tuple, __pyx_tuple__46, __pyx_empty_tuple, __pyx_empty_tuple, __pyx_kp_s_stringsource, __pyx_n_s_pyx_unpickle_Enum, 1, __pyx_empty_bytes); if (unlikely(!__pyx_codeobj__47)) __PYX_ERR(2, 1, __pyx_L1_error)

	mov	QWORD PTR __pyx_filename, rax

; 21969:   __pyx_L1_error:;
; 21970:   __Pyx_RefNannyFinishContext();
; 21971:   return -1;

	or	eax, -1
$__pyx_L1_error_11$28664:

; 21972: }

	add	rsp, 120				; 00000078H
	ret	0
$LN17@Pyx_InitCa:

; 21851:   __Pyx_GOTREF(__pyx_tuple__31);
; 21852:   __Pyx_GIVEREF(__pyx_tuple__31);
; 21853:   __pyx_codeobj__32 = (PyObject*)__Pyx_PyCode_New(1, 0, 2, 0, CO_OPTIMIZED|CO_NEWLOCALS, __pyx_empty_bytes, __pyx_empty_tuple, __pyx_empty_tuple, __pyx_tuple__31, __pyx_empty_tuple, __pyx_empty_tuple, __pyx_kp_s_rsrpsinr_pyx, __pyx_n_s_degree_to_rad, 22, __pyx_empty_bytes); if (unlikely(!__pyx_codeobj__32)) __PYX_ERR(0, 22, __pyx_L1_error)

	mov	rcx, QWORD PTR __pyx_empty_bytes
	mov	rax, QWORD PTR __pyx_n_s_degree_to_rad
	mov	r9d, 3
	mov	QWORD PTR [rsp+104], rcx
	mov	DWORD PTR [rsp+96], 22
	mov	QWORD PTR [rsp+88], rax
	mov	rax, QWORD PTR __pyx_kp_s_rsrpsinr_pyx
	lea	edx, QWORD PTR [r9-1]
	xor	r8d, r8d
	mov	QWORD PTR [rsp+80], rax
	mov	rax, QWORD PTR __pyx_empty_tuple
	mov	QWORD PTR [rsp+72], rax
	mov	QWORD PTR [rsp+64], rax
	mov	QWORD PTR [rsp+56], r11
	mov	QWORD PTR [rsp+48], rax
	mov	QWORD PTR [rsp+40], rax
	mov	QWORD PTR [rsp+32], rcx
	lea	ecx, QWORD PTR [rdx-1]
	call	QWORD PTR __imp_PyCode_New
	mov	QWORD PTR __pyx_codeobj__32, rax
	test	rax, rax
	jne	SHORT $LN16@Pyx_InitCa
	mov	rax, QWORD PTR __pyx_f
	mov	DWORD PTR __pyx_lineno, 22
	mov	DWORD PTR __pyx_clineno, 21853		; 0000555dH

; 21964:   __Pyx_GOTREF(__pyx_tuple__46);
; 21965:   __Pyx_GIVEREF(__pyx_tuple__46);
; 21966:   __pyx_codeobj__47 = (PyObject*)__Pyx_PyCode_New(3, 0, 5, 0, CO_OPTIMIZED|CO_NEWLOCALS, __pyx_empty_bytes, __pyx_empty_tuple, __pyx_empty_tuple, __pyx_tuple__46, __pyx_empty_tuple, __pyx_empty_tuple, __pyx_kp_s_stringsource, __pyx_n_s_pyx_unpickle_Enum, 1, __pyx_empty_bytes); if (unlikely(!__pyx_codeobj__47)) __PYX_ERR(2, 1, __pyx_L1_error)

	mov	QWORD PTR __pyx_filename, rax

; 21969:   __pyx_L1_error:;
; 21970:   __Pyx_RefNannyFinishContext();
; 21971:   return -1;

	or	eax, -1
$__pyx_L1_error_12$28664:

; 21972: }

	add	rsp, 120				; 00000078H
	ret	0
$LN16@Pyx_InitCa:

; 21854: 
; 21855:   /* "rsrpsinr.pyx":25
; 21856:  *     return d*pi180
; 21857:  * 
; 21858:  * def rad_to_degree(double d):             # <<<<<<<<<<<<<<
; 21859:  *     return d/pi180
; 21860:  * 
; 21861:  */
; 21862:   __pyx_tuple__33 = PyTuple_Pack(2, __pyx_n_s_d, __pyx_n_s_d); if (unlikely(!__pyx_tuple__33)) __PYX_ERR(0, 25, __pyx_L1_error)

	mov	rdx, QWORD PTR __pyx_n_s_d
	mov	ecx, 2
	mov	r8, rdx
	call	QWORD PTR __imp_PyTuple_Pack
	mov	r11, rax
	mov	QWORD PTR __pyx_tuple__33, rax
	test	rax, rax
	jne	SHORT $LN15@Pyx_InitCa
	mov	rax, QWORD PTR __pyx_f
	mov	DWORD PTR __pyx_lineno, 25
	mov	DWORD PTR __pyx_clineno, 21862		; 00005566H

; 21964:   __Pyx_GOTREF(__pyx_tuple__46);
; 21965:   __Pyx_GIVEREF(__pyx_tuple__46);
; 21966:   __pyx_codeobj__47 = (PyObject*)__Pyx_PyCode_New(3, 0, 5, 0, CO_OPTIMIZED|CO_NEWLOCALS, __pyx_empty_bytes, __pyx_empty_tuple, __pyx_empty_tuple, __pyx_tuple__46, __pyx_empty_tuple, __pyx_empty_tuple, __pyx_kp_s_stringsource, __pyx_n_s_pyx_unpickle_Enum, 1, __pyx_empty_bytes); if (unlikely(!__pyx_codeobj__47)) __PYX_ERR(2, 1, __pyx_L1_error)

	mov	QWORD PTR __pyx_filename, rax

; 21969:   __pyx_L1_error:;
; 21970:   __Pyx_RefNannyFinishContext();
; 21971:   return -1;

	or	eax, -1
$__pyx_L1_error_13$28664:

; 21972: }

	add	rsp, 120				; 00000078H
	ret	0
$LN15@Pyx_InitCa:

; 21863:   __Pyx_GOTREF(__pyx_tuple__33);
; 21864:   __Pyx_GIVEREF(__pyx_tuple__33);
; 21865:   __pyx_codeobj__34 = (PyObject*)__Pyx_PyCode_New(1, 0, 2, 0, CO_OPTIMIZED|CO_NEWLOCALS, __pyx_empty_bytes, __pyx_empty_tuple, __pyx_empty_tuple, __pyx_tuple__33, __pyx_empty_tuple, __pyx_empty_tuple, __pyx_kp_s_rsrpsinr_pyx, __pyx_n_s_rad_to_degree, 25, __pyx_empty_bytes); if (unlikely(!__pyx_codeobj__34)) __PYX_ERR(0, 25, __pyx_L1_error)

	mov	rcx, QWORD PTR __pyx_empty_bytes
	mov	rax, QWORD PTR __pyx_n_s_rad_to_degree
	mov	r9d, 3
	mov	QWORD PTR [rsp+104], rcx
	mov	DWORD PTR [rsp+96], 25
	mov	QWORD PTR [rsp+88], rax
	mov	rax, QWORD PTR __pyx_kp_s_rsrpsinr_pyx
	lea	edx, QWORD PTR [r9-1]
	xor	r8d, r8d
	mov	QWORD PTR [rsp+80], rax
	mov	rax, QWORD PTR __pyx_empty_tuple
	mov	QWORD PTR [rsp+72], rax
	mov	QWORD PTR [rsp+64], rax
	mov	QWORD PTR [rsp+56], r11
	mov	QWORD PTR [rsp+48], rax
	mov	QWORD PTR [rsp+40], rax
	mov	QWORD PTR [rsp+32], rcx
	lea	ecx, QWORD PTR [rdx-1]
	call	QWORD PTR __imp_PyCode_New
	mov	QWORD PTR __pyx_codeobj__34, rax
	test	rax, rax
	jne	SHORT $LN14@Pyx_InitCa
	mov	rax, QWORD PTR __pyx_f
	mov	DWORD PTR __pyx_lineno, 25
	mov	DWORD PTR __pyx_clineno, 21865		; 00005569H

; 21964:   __Pyx_GOTREF(__pyx_tuple__46);
; 21965:   __Pyx_GIVEREF(__pyx_tuple__46);
; 21966:   __pyx_codeobj__47 = (PyObject*)__Pyx_PyCode_New(3, 0, 5, 0, CO_OPTIMIZED|CO_NEWLOCALS, __pyx_empty_bytes, __pyx_empty_tuple, __pyx_empty_tuple, __pyx_tuple__46, __pyx_empty_tuple, __pyx_empty_tuple, __pyx_kp_s_stringsource, __pyx_n_s_pyx_unpickle_Enum, 1, __pyx_empty_bytes); if (unlikely(!__pyx_codeobj__47)) __PYX_ERR(2, 1, __pyx_L1_error)

	mov	QWORD PTR __pyx_filename, rax

; 21969:   __pyx_L1_error:;
; 21970:   __Pyx_RefNannyFinishContext();
; 21971:   return -1;

	or	eax, -1
$__pyx_L1_error_14$28664:

; 21972: }

	add	rsp, 120				; 00000078H
	ret	0
$LN14@Pyx_InitCa:

; 21866: 
; 21867:   /* "rsrpsinr.pyx":34
; 21868:  *     return d/pi180
; 21869:  * 
; 21870:  * def set_antenna_hv_vv(             # <<<<<<<<<<<<<<
; 21871:  *     np.ndarray[DTYPE_t, mode='c', ndim=1] hv,
; 21872:  *     np.ndarray[DTYPE_t, mode='c', ndim=1] vv):
; 21873:  */
; 21874:   __pyx_tuple__35 = PyTuple_Pack(2, __pyx_n_s_hv, __pyx_n_s_vv); if (unlikely(!__pyx_tuple__35)) __PYX_ERR(0, 34, __pyx_L1_error)

	mov	r8, QWORD PTR __pyx_n_s_vv
	mov	rdx, QWORD PTR __pyx_n_s_hv
	mov	ecx, 2
	call	QWORD PTR __imp_PyTuple_Pack
	mov	r11, rax
	mov	QWORD PTR __pyx_tuple__35, rax
	test	rax, rax
	jne	SHORT $LN13@Pyx_InitCa
	mov	rax, QWORD PTR __pyx_f
	mov	DWORD PTR __pyx_lineno, 34		; 00000022H
	mov	DWORD PTR __pyx_clineno, 21874		; 00005572H

; 21964:   __Pyx_GOTREF(__pyx_tuple__46);
; 21965:   __Pyx_GIVEREF(__pyx_tuple__46);
; 21966:   __pyx_codeobj__47 = (PyObject*)__Pyx_PyCode_New(3, 0, 5, 0, CO_OPTIMIZED|CO_NEWLOCALS, __pyx_empty_bytes, __pyx_empty_tuple, __pyx_empty_tuple, __pyx_tuple__46, __pyx_empty_tuple, __pyx_empty_tuple, __pyx_kp_s_stringsource, __pyx_n_s_pyx_unpickle_Enum, 1, __pyx_empty_bytes); if (unlikely(!__pyx_codeobj__47)) __PYX_ERR(2, 1, __pyx_L1_error)

	mov	QWORD PTR __pyx_filename, rax

; 21969:   __pyx_L1_error:;
; 21970:   __Pyx_RefNannyFinishContext();
; 21971:   return -1;

	or	eax, -1
$__pyx_L1_error_15$28664:

; 21972: }

	add	rsp, 120				; 00000078H
	ret	0
$LN13@Pyx_InitCa:

; 21875:   __Pyx_GOTREF(__pyx_tuple__35);
; 21876:   __Pyx_GIVEREF(__pyx_tuple__35);
; 21877:   __pyx_codeobj__36 = (PyObject*)__Pyx_PyCode_New(2, 0, 2, 0, CO_OPTIMIZED|CO_NEWLOCALS, __pyx_empty_bytes, __pyx_empty_tuple, __pyx_empty_tuple, __pyx_tuple__35, __pyx_empty_tuple, __pyx_empty_tuple, __pyx_kp_s_rsrpsinr_pyx, __pyx_n_s_set_antenna_hv_vv, 34, __pyx_empty_bytes); if (unlikely(!__pyx_codeobj__36)) __PYX_ERR(0, 34, __pyx_L1_error)

	mov	rcx, QWORD PTR __pyx_empty_bytes
	mov	rax, QWORD PTR __pyx_n_s_set_antenna_hv_vv
	mov	edx, 2
	mov	QWORD PTR [rsp+104], rcx
	mov	DWORD PTR [rsp+96], 34			; 00000022H
	mov	QWORD PTR [rsp+88], rax
	mov	rax, QWORD PTR __pyx_kp_s_rsrpsinr_pyx
	mov	r9d, 3
	xor	r8d, r8d
	mov	QWORD PTR [rsp+80], rax
	mov	rax, QWORD PTR __pyx_empty_tuple
	mov	QWORD PTR [rsp+72], rax
	mov	QWORD PTR [rsp+64], rax
	mov	QWORD PTR [rsp+56], r11
	mov	QWORD PTR [rsp+48], rax
	mov	QWORD PTR [rsp+40], rax
	mov	QWORD PTR [rsp+32], rcx
	mov	ecx, edx
	call	QWORD PTR __imp_PyCode_New
	mov	QWORD PTR __pyx_codeobj__36, rax
	test	rax, rax
	jne	SHORT $LN12@Pyx_InitCa
	mov	rax, QWORD PTR __pyx_f
	mov	DWORD PTR __pyx_lineno, 34		; 00000022H
	mov	DWORD PTR __pyx_clineno, 21877		; 00005575H

; 21964:   __Pyx_GOTREF(__pyx_tuple__46);
; 21965:   __Pyx_GIVEREF(__pyx_tuple__46);
; 21966:   __pyx_codeobj__47 = (PyObject*)__Pyx_PyCode_New(3, 0, 5, 0, CO_OPTIMIZED|CO_NEWLOCALS, __pyx_empty_bytes, __pyx_empty_tuple, __pyx_empty_tuple, __pyx_tuple__46, __pyx_empty_tuple, __pyx_empty_tuple, __pyx_kp_s_stringsource, __pyx_n_s_pyx_unpickle_Enum, 1, __pyx_empty_bytes); if (unlikely(!__pyx_codeobj__47)) __PYX_ERR(2, 1, __pyx_L1_error)

	mov	QWORD PTR __pyx_filename, rax

; 21969:   __pyx_L1_error:;
; 21970:   __Pyx_RefNannyFinishContext();
; 21971:   return -1;

	or	eax, -1
$__pyx_L1_error_16$28664:

; 21972: }

	add	rsp, 120				; 00000078H
	ret	0
$LN12@Pyx_InitCa:

; 21878: 
; 21879:   /* "rsrpsinr.pyx":238
; 21880:  * Interface
; 21881:  * """
; 21882:  * def gain(double alpha, double beta):             # <<<<<<<<<<<<<<
; 21883:  *     return cgain(alpha, beta)
; 21884:  * 
; 21885:  */
; 21886:   __pyx_tuple__37 = PyTuple_Pack(2, __pyx_n_s_alpha, __pyx_n_s_beta); if (unlikely(!__pyx_tuple__37)) __PYX_ERR(0, 238, __pyx_L1_error)

	mov	r8, QWORD PTR __pyx_n_s_beta
	mov	rdx, QWORD PTR __pyx_n_s_alpha
	mov	ecx, 2
	call	QWORD PTR __imp_PyTuple_Pack
	mov	r11, rax
	mov	QWORD PTR __pyx_tuple__37, rax
	test	rax, rax
	jne	SHORT $LN11@Pyx_InitCa
	mov	rax, QWORD PTR __pyx_f
	mov	DWORD PTR __pyx_lineno, 238		; 000000eeH
	mov	DWORD PTR __pyx_clineno, 21886		; 0000557eH

; 21964:   __Pyx_GOTREF(__pyx_tuple__46);
; 21965:   __Pyx_GIVEREF(__pyx_tuple__46);
; 21966:   __pyx_codeobj__47 = (PyObject*)__Pyx_PyCode_New(3, 0, 5, 0, CO_OPTIMIZED|CO_NEWLOCALS, __pyx_empty_bytes, __pyx_empty_tuple, __pyx_empty_tuple, __pyx_tuple__46, __pyx_empty_tuple, __pyx_empty_tuple, __pyx_kp_s_stringsource, __pyx_n_s_pyx_unpickle_Enum, 1, __pyx_empty_bytes); if (unlikely(!__pyx_codeobj__47)) __PYX_ERR(2, 1, __pyx_L1_error)

	mov	QWORD PTR __pyx_filename, rax

; 21969:   __pyx_L1_error:;
; 21970:   __Pyx_RefNannyFinishContext();
; 21971:   return -1;

	or	eax, -1
$__pyx_L1_error_17$28664:

; 21972: }

	add	rsp, 120				; 00000078H
	ret	0
$LN11@Pyx_InitCa:

; 21887:   __Pyx_GOTREF(__pyx_tuple__37);
; 21888:   __Pyx_GIVEREF(__pyx_tuple__37);
; 21889:   __pyx_codeobj__38 = (PyObject*)__Pyx_PyCode_New(2, 0, 2, 0, CO_OPTIMIZED|CO_NEWLOCALS, __pyx_empty_bytes, __pyx_empty_tuple, __pyx_empty_tuple, __pyx_tuple__37, __pyx_empty_tuple, __pyx_empty_tuple, __pyx_kp_s_rsrpsinr_pyx, __pyx_n_s_gain, 238, __pyx_empty_bytes); if (unlikely(!__pyx_codeobj__38)) __PYX_ERR(0, 238, __pyx_L1_error)

	mov	rdx, QWORD PTR __pyx_empty_bytes
	mov	rax, QWORD PTR __pyx_n_s_gain
	mov	r9d, 3
	mov	QWORD PTR [rsp+104], rdx
	mov	DWORD PTR [rsp+96], 238			; 000000eeH
	mov	QWORD PTR [rsp+88], rax
	mov	rax, QWORD PTR __pyx_kp_s_rsrpsinr_pyx
	xor	r8d, r8d
	mov	QWORD PTR [rsp+80], rax
	mov	rax, QWORD PTR __pyx_empty_tuple
	mov	QWORD PTR [rsp+72], rax
	mov	QWORD PTR [rsp+64], rax
	mov	QWORD PTR [rsp+56], r11
	mov	QWORD PTR [rsp+48], rax
	mov	QWORD PTR [rsp+40], rax
	mov	QWORD PTR [rsp+32], rdx
	mov	edx, 2
	mov	ecx, edx
	call	QWORD PTR __imp_PyCode_New
	mov	QWORD PTR __pyx_codeobj__38, rax
	test	rax, rax
	jne	SHORT $LN10@Pyx_InitCa
	mov	rax, QWORD PTR __pyx_f
	mov	DWORD PTR __pyx_lineno, 238		; 000000eeH
	mov	DWORD PTR __pyx_clineno, 21889		; 00005581H

; 21964:   __Pyx_GOTREF(__pyx_tuple__46);
; 21965:   __Pyx_GIVEREF(__pyx_tuple__46);
; 21966:   __pyx_codeobj__47 = (PyObject*)__Pyx_PyCode_New(3, 0, 5, 0, CO_OPTIMIZED|CO_NEWLOCALS, __pyx_empty_bytes, __pyx_empty_tuple, __pyx_empty_tuple, __pyx_tuple__46, __pyx_empty_tuple, __pyx_empty_tuple, __pyx_kp_s_stringsource, __pyx_n_s_pyx_unpickle_Enum, 1, __pyx_empty_bytes); if (unlikely(!__pyx_codeobj__47)) __PYX_ERR(2, 1, __pyx_L1_error)

	mov	QWORD PTR __pyx_filename, rax

; 21969:   __pyx_L1_error:;
; 21970:   __Pyx_RefNannyFinishContext();
; 21971:   return -1;

	or	eax, -1
$__pyx_L1_error_18$28664:

; 21972: }

	add	rsp, 120				; 00000078H
	ret	0
$LN10@Pyx_InitCa:

; 21890: 
; 21891:   /* "rsrpsinr.pyx":241
; 21892:  *     return cgain(alpha, beta)
; 21893:  * 
; 21894:  * def get_coverage(             # <<<<<<<<<<<<<<
; 21895:  *     np.ndarray[DTYPE_t, ndim=2] S,
; 21896:  *     np.ndarray[DTYPE_t, ndim=2] B,
; 21897:  */
; 21898:   __pyx_tuple__39 = PyTuple_Pack(8, __pyx_n_s_S, __pyx_n_s_B, __pyx_n_s_B_of_S, __pyx_n_s_RSRP_TH, __pyx_n_s_SINR_TH, __pyx_n_s_TERM_HEIGHT, __pyx_n_s_FREQ, __pyx_n_s_NOISE); if (unlikely(!__pyx_tuple__39)) __PYX_ERR(0, 241, __pyx_L1_error)

	mov	rax, QWORD PTR __pyx_n_s_NOISE
	mov	r9, QWORD PTR __pyx_n_s_B_of_S
	mov	r8, QWORD PTR __pyx_n_s_B
	mov	rdx, QWORD PTR __pyx_n_s_S
	mov	QWORD PTR [rsp+64], rax
	mov	rax, QWORD PTR __pyx_n_s_FREQ
	mov	QWORD PTR [rsp+56], rax
	mov	rax, QWORD PTR __pyx_n_s_TERM_HEIGHT
	mov	ecx, 8
	mov	QWORD PTR [rsp+48], rax
	mov	rax, QWORD PTR __pyx_n_s_SINR_TH
	mov	QWORD PTR [rsp+40], rax
	mov	rax, QWORD PTR __pyx_n_s_RSRP_TH
	mov	QWORD PTR [rsp+32], rax
	call	QWORD PTR __imp_PyTuple_Pack
	mov	r11, rax
	mov	QWORD PTR __pyx_tuple__39, rax
	test	rax, rax
	jne	SHORT $LN9@Pyx_InitCa
	mov	rax, QWORD PTR __pyx_f
	mov	DWORD PTR __pyx_lineno, 241		; 000000f1H
	mov	DWORD PTR __pyx_clineno, 21898		; 0000558aH

; 21964:   __Pyx_GOTREF(__pyx_tuple__46);
; 21965:   __Pyx_GIVEREF(__pyx_tuple__46);
; 21966:   __pyx_codeobj__47 = (PyObject*)__Pyx_PyCode_New(3, 0, 5, 0, CO_OPTIMIZED|CO_NEWLOCALS, __pyx_empty_bytes, __pyx_empty_tuple, __pyx_empty_tuple, __pyx_tuple__46, __pyx_empty_tuple, __pyx_empty_tuple, __pyx_kp_s_stringsource, __pyx_n_s_pyx_unpickle_Enum, 1, __pyx_empty_bytes); if (unlikely(!__pyx_codeobj__47)) __PYX_ERR(2, 1, __pyx_L1_error)

	mov	QWORD PTR __pyx_filename, rax

; 21969:   __pyx_L1_error:;
; 21970:   __Pyx_RefNannyFinishContext();
; 21971:   return -1;

	or	eax, -1
$__pyx_L1_error_19$28664:

; 21972: }

	add	rsp, 120				; 00000078H
	ret	0
$LN9@Pyx_InitCa:

; 21899:   __Pyx_GOTREF(__pyx_tuple__39);
; 21900:   __Pyx_GIVEREF(__pyx_tuple__39);
; 21901:   __pyx_codeobj__40 = (PyObject*)__Pyx_PyCode_New(8, 0, 8, 0, CO_OPTIMIZED|CO_NEWLOCALS, __pyx_empty_bytes, __pyx_empty_tuple, __pyx_empty_tuple, __pyx_tuple__39, __pyx_empty_tuple, __pyx_empty_tuple, __pyx_kp_s_rsrpsinr_pyx, __pyx_n_s_get_coverage, 241, __pyx_empty_bytes); if (unlikely(!__pyx_codeobj__40)) __PYX_ERR(0, 241, __pyx_L1_error)

	mov	rdx, QWORD PTR __pyx_empty_bytes
	mov	rax, QWORD PTR __pyx_n_s_get_coverage
	mov	r9d, 3
	mov	QWORD PTR [rsp+104], rdx
	mov	DWORD PTR [rsp+96], 241			; 000000f1H
	mov	QWORD PTR [rsp+88], rax
	mov	rax, QWORD PTR __pyx_kp_s_rsrpsinr_pyx
	xor	r8d, r8d
	mov	QWORD PTR [rsp+80], rax
	mov	rax, QWORD PTR __pyx_empty_tuple
	mov	QWORD PTR [rsp+72], rax
	mov	QWORD PTR [rsp+64], rax
	mov	QWORD PTR [rsp+56], r11
	mov	QWORD PTR [rsp+48], rax
	mov	QWORD PTR [rsp+40], rax
	mov	QWORD PTR [rsp+32], rdx
	mov	edx, 8
	mov	ecx, edx
	call	QWORD PTR __imp_PyCode_New
	mov	QWORD PTR __pyx_codeobj__40, rax
	test	rax, rax
	jne	SHORT $LN8@Pyx_InitCa
	mov	rax, QWORD PTR __pyx_f
	mov	DWORD PTR __pyx_lineno, 241		; 000000f1H
	mov	DWORD PTR __pyx_clineno, 21901		; 0000558dH

; 21964:   __Pyx_GOTREF(__pyx_tuple__46);
; 21965:   __Pyx_GIVEREF(__pyx_tuple__46);
; 21966:   __pyx_codeobj__47 = (PyObject*)__Pyx_PyCode_New(3, 0, 5, 0, CO_OPTIMIZED|CO_NEWLOCALS, __pyx_empty_bytes, __pyx_empty_tuple, __pyx_empty_tuple, __pyx_tuple__46, __pyx_empty_tuple, __pyx_empty_tuple, __pyx_kp_s_stringsource, __pyx_n_s_pyx_unpickle_Enum, 1, __pyx_empty_bytes); if (unlikely(!__pyx_codeobj__47)) __PYX_ERR(2, 1, __pyx_L1_error)

	mov	QWORD PTR __pyx_filename, rax

; 21969:   __pyx_L1_error:;
; 21970:   __Pyx_RefNannyFinishContext();
; 21971:   return -1;

	or	eax, -1
$__pyx_L1_error_20$28664:

; 21972: }

	add	rsp, 120				; 00000078H
	ret	0
$LN8@Pyx_InitCa:

; 21902: 
; 21903:   /* "View.MemoryView":284
; 21904:  *         return self.name
; 21905:  * 
; 21906:  * cdef generic = Enum("<strided and direct or indirect>")             # <<<<<<<<<<<<<<
; 21907:  * cdef strided = Enum("<strided and direct>") # default
; 21908:  * cdef indirect = Enum("<strided and indirect>")
; 21909:  */
; 21910:   __pyx_tuple__41 = PyTuple_Pack(1, __pyx_kp_s_strided_and_direct_or_indirect); if (unlikely(!__pyx_tuple__41)) __PYX_ERR(2, 284, __pyx_L1_error)

	mov	rdx, QWORD PTR __pyx_kp_s_strided_and_direct_or_indirect
	mov	ecx, 1
	call	QWORD PTR __imp_PyTuple_Pack
	mov	QWORD PTR __pyx_tuple__41, rax
	test	rax, rax
	jne	SHORT $LN7@Pyx_InitCa
	mov	DWORD PTR __pyx_lineno, 284		; 0000011cH
	mov	DWORD PTR __pyx_clineno, 21910		; 00005596H
	jmp	$LN51@Pyx_InitCa
$LN7@Pyx_InitCa:

; 21911:   __Pyx_GOTREF(__pyx_tuple__41);
; 21912:   __Pyx_GIVEREF(__pyx_tuple__41);
; 21913: 
; 21914:   /* "View.MemoryView":285
; 21915:  * 
; 21916:  * cdef generic = Enum("<strided and direct or indirect>")
; 21917:  * cdef strided = Enum("<strided and direct>") # default             # <<<<<<<<<<<<<<
; 21918:  * cdef indirect = Enum("<strided and indirect>")
; 21919:  * 
; 21920:  */
; 21921:   __pyx_tuple__42 = PyTuple_Pack(1, __pyx_kp_s_strided_and_direct); if (unlikely(!__pyx_tuple__42)) __PYX_ERR(2, 285, __pyx_L1_error)

	mov	rdx, QWORD PTR __pyx_kp_s_strided_and_direct
	mov	ecx, 1
	call	QWORD PTR __imp_PyTuple_Pack
	mov	QWORD PTR __pyx_tuple__42, rax
	test	rax, rax
	jne	SHORT $LN6@Pyx_InitCa
	mov	DWORD PTR __pyx_lineno, 285		; 0000011dH
	mov	DWORD PTR __pyx_clineno, 21921		; 000055a1H
	jmp	$LN51@Pyx_InitCa
$LN6@Pyx_InitCa:

; 21922:   __Pyx_GOTREF(__pyx_tuple__42);
; 21923:   __Pyx_GIVEREF(__pyx_tuple__42);
; 21924: 
; 21925:   /* "View.MemoryView":286
; 21926:  * cdef generic = Enum("<strided and direct or indirect>")
; 21927:  * cdef strided = Enum("<strided and direct>") # default
; 21928:  * cdef indirect = Enum("<strided and indirect>")             # <<<<<<<<<<<<<<
; 21929:  * 
; 21930:  * 
; 21931:  */
; 21932:   __pyx_tuple__43 = PyTuple_Pack(1, __pyx_kp_s_strided_and_indirect); if (unlikely(!__pyx_tuple__43)) __PYX_ERR(2, 286, __pyx_L1_error)

	mov	rdx, QWORD PTR __pyx_kp_s_strided_and_indirect
	mov	ecx, 1
	call	QWORD PTR __imp_PyTuple_Pack
	mov	QWORD PTR __pyx_tuple__43, rax
	test	rax, rax
	jne	SHORT $LN5@Pyx_InitCa
	mov	DWORD PTR __pyx_lineno, 286		; 0000011eH
	mov	DWORD PTR __pyx_clineno, 21932		; 000055acH
	jmp	$LN51@Pyx_InitCa
$LN5@Pyx_InitCa:

; 21933:   __Pyx_GOTREF(__pyx_tuple__43);
; 21934:   __Pyx_GIVEREF(__pyx_tuple__43);
; 21935: 
; 21936:   /* "View.MemoryView":289
; 21937:  * 
; 21938:  * 
; 21939:  * cdef contiguous = Enum("<contiguous and direct>")             # <<<<<<<<<<<<<<
; 21940:  * cdef indirect_contiguous = Enum("<contiguous and indirect>")
; 21941:  * 
; 21942:  */
; 21943:   __pyx_tuple__44 = PyTuple_Pack(1, __pyx_kp_s_contiguous_and_direct); if (unlikely(!__pyx_tuple__44)) __PYX_ERR(2, 289, __pyx_L1_error)

	mov	rdx, QWORD PTR __pyx_kp_s_contiguous_and_direct
	mov	ecx, 1
	call	QWORD PTR __imp_PyTuple_Pack
	mov	QWORD PTR __pyx_tuple__44, rax
	test	rax, rax
	jne	SHORT $LN4@Pyx_InitCa
	mov	DWORD PTR __pyx_lineno, 289		; 00000121H
	mov	DWORD PTR __pyx_clineno, 21943		; 000055b7H
	jmp	$LN51@Pyx_InitCa
$LN4@Pyx_InitCa:

; 21944:   __Pyx_GOTREF(__pyx_tuple__44);
; 21945:   __Pyx_GIVEREF(__pyx_tuple__44);
; 21946: 
; 21947:   /* "View.MemoryView":290
; 21948:  * 
; 21949:  * cdef contiguous = Enum("<contiguous and direct>")
; 21950:  * cdef indirect_contiguous = Enum("<contiguous and indirect>")             # <<<<<<<<<<<<<<
; 21951:  * 
; 21952:  * 
; 21953:  */
; 21954:   __pyx_tuple__45 = PyTuple_Pack(1, __pyx_kp_s_contiguous_and_indirect); if (unlikely(!__pyx_tuple__45)) __PYX_ERR(2, 290, __pyx_L1_error)

	mov	rdx, QWORD PTR __pyx_kp_s_contiguous_and_indirect
	mov	ecx, 1
	call	QWORD PTR __imp_PyTuple_Pack
	mov	QWORD PTR __pyx_tuple__45, rax
	test	rax, rax
	jne	SHORT $LN3@Pyx_InitCa
	mov	DWORD PTR __pyx_lineno, 290		; 00000122H
	mov	DWORD PTR __pyx_clineno, 21954		; 000055c2H
	jmp	$LN51@Pyx_InitCa
$LN3@Pyx_InitCa:

; 21955:   __Pyx_GOTREF(__pyx_tuple__45);
; 21956:   __Pyx_GIVEREF(__pyx_tuple__45);
; 21957: 
; 21958:   /* "(tree fragment)":1
; 21959:  * def __pyx_unpickle_Enum(__pyx_type, long __pyx_checksum, __pyx_state):             # <<<<<<<<<<<<<<
; 21960:  *     if __pyx_checksum != 0xb068931:
; 21961:  *         from pickle import PickleError as __pyx_PickleError
; 21962:  */
; 21963:   __pyx_tuple__46 = PyTuple_Pack(5, __pyx_n_s_pyx_type, __pyx_n_s_pyx_checksum, __pyx_n_s_pyx_state, __pyx_n_s_pyx_PickleError, __pyx_n_s_pyx_result); if (unlikely(!__pyx_tuple__46)) __PYX_ERR(2, 1, __pyx_L1_error)

	mov	rax, QWORD PTR __pyx_n_s_pyx_result
	mov	r9, QWORD PTR __pyx_n_s_pyx_state
	mov	r8, QWORD PTR __pyx_n_s_pyx_checksum
	mov	rdx, QWORD PTR __pyx_n_s_pyx_type
	mov	QWORD PTR [rsp+40], rax
	mov	rax, QWORD PTR __pyx_n_s_pyx_PickleError
	mov	ecx, 5
	mov	QWORD PTR [rsp+32], rax
	call	QWORD PTR __imp_PyTuple_Pack
	mov	r11, rax
	mov	QWORD PTR __pyx_tuple__46, rax
	test	rax, rax
	jne	SHORT $LN2@Pyx_InitCa
	mov	DWORD PTR __pyx_clineno, 21963		; 000055cbH
	jmp	SHORT $LN52@Pyx_InitCa
$LN2@Pyx_InitCa:

; 21964:   __Pyx_GOTREF(__pyx_tuple__46);
; 21965:   __Pyx_GIVEREF(__pyx_tuple__46);
; 21966:   __pyx_codeobj__47 = (PyObject*)__Pyx_PyCode_New(3, 0, 5, 0, CO_OPTIMIZED|CO_NEWLOCALS, __pyx_empty_bytes, __pyx_empty_tuple, __pyx_empty_tuple, __pyx_tuple__46, __pyx_empty_tuple, __pyx_empty_tuple, __pyx_kp_s_stringsource, __pyx_n_s_pyx_unpickle_Enum, 1, __pyx_empty_bytes); if (unlikely(!__pyx_codeobj__47)) __PYX_ERR(2, 1, __pyx_L1_error)

	mov	r8, QWORD PTR __pyx_empty_bytes
	mov	rax, QWORD PTR __pyx_n_s_pyx_unpickle_Enum
	mov	r9d, 3
	mov	QWORD PTR [rsp+104], r8
	mov	DWORD PTR [rsp+96], 1
	mov	QWORD PTR [rsp+88], rax
	mov	rax, QWORD PTR __pyx_kp_s_stringsource
	lea	edx, QWORD PTR [r9+2]
	mov	ecx, r9d
	mov	QWORD PTR [rsp+80], rax
	mov	rax, QWORD PTR __pyx_empty_tuple
	mov	QWORD PTR [rsp+72], rax
	mov	QWORD PTR [rsp+64], rax
	mov	QWORD PTR [rsp+56], r11
	mov	QWORD PTR [rsp+48], rax
	mov	QWORD PTR [rsp+40], rax
	mov	QWORD PTR [rsp+32], r8
	xor	r8d, r8d
	call	QWORD PTR __imp_PyCode_New
	mov	QWORD PTR __pyx_codeobj__47, rax
	test	rax, rax
	jne	SHORT $LN1@Pyx_InitCa
	mov	DWORD PTR __pyx_clineno, 21966		; 000055ceH
$LN52@Pyx_InitCa:
	mov	DWORD PTR __pyx_lineno, 1
$LN51@Pyx_InitCa:
	mov	rax, QWORD PTR __pyx_f+16
$__pyx_L1_error_21$28664:
	mov	QWORD PTR __pyx_filename, rax

; 21969:   __pyx_L1_error:;
; 21970:   __Pyx_RefNannyFinishContext();
; 21971:   return -1;

	or	eax, -1

; 21972: }

	add	rsp, 120				; 00000078H
	ret	0
$LN1@Pyx_InitCa:

; 21967:   __Pyx_RefNannyFinishContext();
; 21968:   return 0;

	xor	eax, eax

; 21972: }

	add	rsp, 120				; 00000078H
	ret	0
__Pyx_InitCachedConstants ENDP
_TEXT	ENDS
PUBLIC	??_C@_0BN@DBLGJMNF@name?5?8?$CF?4200s?8?5is?5not?5defined?$AA@ ; `string'
EXTRN	__imp_PyErr_Format:PROC
EXTRN	__imp_PyExc_NameError:QWORD
_BSS	SEGMENT
__pyx_b	DQ	01H DUP (?)
_BSS	ENDS
;	COMDAT pdata
pdata	SEGMENT
$pdata$__Pyx_GetBuiltinName DD imagerel __Pyx_GetBuiltinName
	DD	imagerel __Pyx_GetBuiltinName+120
	DD	imagerel $unwind$__Pyx_GetBuiltinName
pdata	ENDS
;	COMDAT xdata
xdata	SEGMENT
$unwind$__Pyx_GetBuiltinName DD 040a01H
	DD	06340aH
	DD	07006320aH
xdata	ENDS
;	COMDAT ??_C@_0BN@DBLGJMNF@name?5?8?$CF?4200s?8?5is?5not?5defined?$AA@
CONST	SEGMENT
??_C@_0BN@DBLGJMNF@name?5?8?$CF?4200s?8?5is?5not?5defined?$AA@ DB 'name '''
	DB	'%.200s'' is not defined', 00H		; `string'
; Function compile flags: /Ogtpy
CONST	ENDS
;	COMDAT __Pyx_GetBuiltinName
_TEXT	SEGMENT
name$ = 48
__Pyx_GetBuiltinName PROC				; COMDAT

; 22505: static PyObject *__Pyx_GetBuiltinName(PyObject *name) {

	mov	QWORD PTR [rsp+8], rbx
	push	rdi
	sub	rsp, 32					; 00000020H
	mov	rdi, rcx

; 22506:     PyObject* result = __Pyx_PyObject_GetAttrStr(__pyx_b, name);

	mov	rcx, QWORD PTR __pyx_b
	mov	rax, QWORD PTR [rcx+8]
	mov	r8, QWORD PTR [rax+144]
	test	r8, r8
	je	SHORT $LN5@Pyx_GetBui
	mov	rdx, rdi
	call	r8
	jmp	SHORT $LN9@Pyx_GetBui
$LN5@Pyx_GetBui:
	mov	r8, QWORD PTR [rax+64]
	test	r8, r8
	je	SHORT $LN4@Pyx_GetBui
	lea	rdx, QWORD PTR [rdi+32]
	call	r8
	jmp	SHORT $LN9@Pyx_GetBui
$LN4@Pyx_GetBui:
	mov	rdx, rdi
	call	QWORD PTR __imp_PyObject_GetAttr
$LN9@Pyx_GetBui:
	mov	rbx, rax

; 22507:     if (unlikely(!result)) {

	test	rax, rax
	jne	SHORT $LN8@Pyx_GetBui

; 22508:         PyErr_Format(PyExc_NameError,
; 22509: #if PY_MAJOR_VERSION >= 3
; 22510:             "name '%U' is not defined", name);
; 22511: #else
; 22512:             "name '%.200s' is not defined", PyString_AS_STRING(name));

	mov	rcx, QWORD PTR __imp_PyExc_NameError
	lea	r8, QWORD PTR [rdi+32]
	lea	rdx, OFFSET FLAT:??_C@_0BN@DBLGJMNF@name?5?8?$CF?4200s?8?5is?5not?5defined?$AA@
	mov	rcx, QWORD PTR [rcx]
	call	QWORD PTR __imp_PyErr_Format
$LN8@Pyx_GetBui:

; 22513: #endif
; 22514:     }
; 22515:     return result;

	mov	rax, rbx

; 22516: }

	mov	rbx, QWORD PTR [rsp+48]
	add	rsp, 32					; 00000020H
	pop	rdi
	ret	0
__Pyx_GetBuiltinName ENDP
_TEXT	ENDS
PUBLIC	??_C@_0DM@NNBILEHH@?$CF?4200s?$CI?$CJ?5takes?5?$CF?48s?5?$CFzd?5position@ ; `string'
PUBLIC	??_C@_01LKDEMHDF@s?$AA@				; `string'
PUBLIC	??_C@_07JLAGAGFH@exactly?$AA@			; `string'
PUBLIC	??_C@_00CNPNBAHC@?$AA@				; `string'
PUBLIC	??_C@_07IGBEEPOP@at?5most?$AA@			; `string'
PUBLIC	??_C@_08FNDBFMB@at?5least?$AA@			; `string'
EXTRN	__imp_PyExc_TypeError:QWORD
;	COMDAT pdata
pdata	SEGMENT
$pdata$__Pyx_RaiseArgtupleInvalid DD imagerel __Pyx_RaiseArgtupleInvalid
	DD	imagerel __Pyx_RaiseArgtupleInvalid+114
	DD	imagerel $unwind$__Pyx_RaiseArgtupleInvalid
pdata	ENDS
;	COMDAT xdata
xdata	SEGMENT
$unwind$__Pyx_RaiseArgtupleInvalid DD 010401H
	DD	08204H
xdata	ENDS
;	COMDAT ??_C@_0DM@NNBILEHH@?$CF?4200s?$CI?$CJ?5takes?5?$CF?48s?5?$CFzd?5position@
CONST	SEGMENT
??_C@_0DM@NNBILEHH@?$CF?4200s?$CI?$CJ?5takes?5?$CF?48s?5?$CFzd?5position@ DB '%'
	DB	'.200s() takes %.8s %zd positional argument%.1s (%zd given)', 00H ; `string'
CONST	ENDS
;	COMDAT ??_C@_01LKDEMHDF@s?$AA@
CONST	SEGMENT
??_C@_01LKDEMHDF@s?$AA@ DB 's', 00H			; `string'
CONST	ENDS
;	COMDAT ??_C@_07JLAGAGFH@exactly?$AA@
CONST	SEGMENT
??_C@_07JLAGAGFH@exactly?$AA@ DB 'exactly', 00H		; `string'
CONST	ENDS
;	COMDAT ??_C@_00CNPNBAHC@?$AA@
CONST	SEGMENT
??_C@_00CNPNBAHC@?$AA@ DB 00H				; `string'
CONST	ENDS
;	COMDAT ??_C@_07IGBEEPOP@at?5most?$AA@
CONST	SEGMENT
??_C@_07IGBEEPOP@at?5most?$AA@ DB 'at most', 00H	; `string'
CONST	ENDS
;	COMDAT ??_C@_08FNDBFMB@at?5least?$AA@
CONST	SEGMENT
??_C@_08FNDBFMB@at?5least?$AA@ DB 'at least', 00H	; `string'
; Function compile flags: /Ogtpy
CONST	ENDS
;	COMDAT __Pyx_RaiseArgtupleInvalid
_TEXT	SEGMENT
func_name$ = 80
exact$ = 88
num_min$ = 96
num_max$ = 104
num_found$ = 112
__Pyx_RaiseArgtupleInvalid PROC				; COMDAT

; 22525: {

	sub	rsp, 72					; 00000048H

; 22526:     Py_ssize_t num_expected;
; 22527:     const char *more_or_less;
; 22528:     if (num_found < num_min) {

	mov	r10, QWORD PTR num_found$[rsp]
	cmp	r10, r8
	jge	SHORT $LN3@Pyx_RaiseA

; 22529:         num_expected = num_min;
; 22530:         more_or_less = "at least";

	lea	rax, OFFSET FLAT:??_C@_08FNDBFMB@at?5least?$AA@

; 22531:     } else {

	jmp	SHORT $LN2@Pyx_RaiseA
$LN3@Pyx_RaiseA:

; 22532:         num_expected = num_max;

	mov	r8, r9

; 22533:         more_or_less = "at most";

	lea	rax, OFFSET FLAT:??_C@_07IGBEEPOP@at?5most?$AA@
$LN2@Pyx_RaiseA:

; 22534:     }
; 22535:     if (exact) {

	test	edx, edx

; 22536:         more_or_less = "exactly";
; 22537:     }
; 22538:     PyErr_Format(PyExc_TypeError,
; 22539:                  "%.200s() takes %.8s %" CYTHON_FORMAT_SSIZE_T "d positional argument%.1s (%" CYTHON_FORMAT_SSIZE_T "d given)",
; 22540:                  func_name, more_or_less, num_expected,
; 22541:                  (num_expected == 1) ? "" : "s", num_found);

	mov	QWORD PTR [rsp+48], r10
	lea	rdx, OFFSET FLAT:??_C@_00CNPNBAHC@?$AA@
	lea	r9, OFFSET FLAT:??_C@_07JLAGAGFH@exactly?$AA@
	cmove	r9, rax
	cmp	r8, 1
	lea	rax, OFFSET FLAT:??_C@_01LKDEMHDF@s?$AA@
	cmove	rax, rdx
	lea	rdx, OFFSET FLAT:??_C@_0DM@NNBILEHH@?$CF?4200s?$CI?$CJ?5takes?5?$CF?48s?5?$CFzd?5position@
	mov	QWORD PTR [rsp+40], rax
	mov	QWORD PTR [rsp+32], r8
	mov	r8, rcx
	mov	rcx, QWORD PTR __imp_PyExc_TypeError
	mov	rcx, QWORD PTR [rcx]
	call	QWORD PTR __imp_PyErr_Format

; 22542: }

	add	rsp, 72					; 00000048H
	ret	0
__Pyx_RaiseArgtupleInvalid ENDP
_TEXT	ENDS
PUBLIC	??_C@_0DD@KBCIFDEA@?$CFs?$CI?$CJ?5got?5multiple?5values?5for?5key@ ; `string'
EXTRN	__imp_PyString_AsString:PROC
;	COMDAT pdata
pdata	SEGMENT
$pdata$__Pyx_RaiseDoubleKeywordsError DD imagerel __Pyx_RaiseDoubleKeywordsError
	DD	imagerel __Pyx_RaiseDoubleKeywordsError+53
	DD	imagerel $unwind$__Pyx_RaiseDoubleKeywordsError
pdata	ENDS
;	COMDAT xdata
xdata	SEGMENT
$unwind$__Pyx_RaiseDoubleKeywordsError DD 020601H
	DD	030023206H
xdata	ENDS
;	COMDAT ??_C@_0DD@KBCIFDEA@?$CFs?$CI?$CJ?5got?5multiple?5values?5for?5key@
CONST	SEGMENT
??_C@_0DD@KBCIFDEA@?$CFs?$CI?$CJ?5got?5multiple?5values?5for?5key@ DB '%s'
	DB	'() got multiple values for keyword argument ''%s''', 00H ; `string'
; Function compile flags: /Ogtpy
CONST	ENDS
;	COMDAT __Pyx_RaiseDoubleKeywordsError
_TEXT	SEGMENT
func_name$ = 48
kw_name$ = 56
__Pyx_RaiseDoubleKeywordsError PROC			; COMDAT

; 22548: {

	push	rbx
	sub	rsp, 32					; 00000020H
	mov	rbx, rcx

; 22549:     PyErr_Format(PyExc_TypeError,
; 22550:         #if PY_MAJOR_VERSION >= 3
; 22551:         "%s() got multiple values for keyword argument '%U'", func_name, kw_name);
; 22552:         #else
; 22553:         "%s() got multiple values for keyword argument '%s'", func_name,
; 22554:         PyString_AsString(kw_name));

	mov	rcx, rdx
	call	QWORD PTR __imp_PyString_AsString
	mov	rcx, QWORD PTR __imp_PyExc_TypeError
	lea	rdx, OFFSET FLAT:??_C@_0DD@KBCIFDEA@?$CFs?$CI?$CJ?5got?5multiple?5values?5for?5key@
	mov	rcx, QWORD PTR [rcx]
	mov	r9, rax
	mov	r8, rbx

; 22555:         #endif
; 22556: }

	add	rsp, 32					; 00000020H
	pop	rbx
	rex_jmp	QWORD PTR __imp_PyErr_Format
__Pyx_RaiseDoubleKeywordsError ENDP
_TEXT	ENDS
PUBLIC	??_C@_0DF@PJIJCGHB@?$CF?4200s?$CI?$CJ?5got?5an?5unexpected?5keywo@ ; `string'
PUBLIC	??_C@_0CC@BDEEHALJ@?$CF?4200s?$CI?$CJ?5keywords?5must?5be?5string@ ; `string'
EXTRN	__imp_PyDict_SetItem:PROC
EXTRN	__imp__PyString_Eq:PROC
EXTRN	__imp_PyErr_Occurred:PROC
EXTRN	__imp_PyUnicodeUCS2_Compare:PROC
EXTRN	__imp_PyString_Type:BYTE
EXTRN	__imp_PyDict_Next:PROC
;	COMDAT pdata
pdata	SEGMENT
$pdata$__Pyx_ParseOptionalKeywords DD imagerel __Pyx_ParseOptionalKeywords
	DD	imagerel __Pyx_ParseOptionalKeywords+731
	DD	imagerel $unwind$__Pyx_ParseOptionalKeywords
pdata	ENDS
;	COMDAT xdata
xdata	SEGMENT
$unwind$__Pyx_ParseOptionalKeywords DD 0a1701H
	DD	0e5417H
	DD	0c3417H
	DD	0e0135217H
	DD	0c00fd011H
	DD	0600c700dH
xdata	ENDS
;	COMDAT ??_C@_0DF@PJIJCGHB@?$CF?4200s?$CI?$CJ?5got?5an?5unexpected?5keywo@
CONST	SEGMENT
??_C@_0DF@PJIJCGHB@?$CF?4200s?$CI?$CJ?5got?5an?5unexpected?5keywo@ DB '%.'
	DB	'200s() got an unexpected keyword argument ''%.200s''', 00H ; `string'
CONST	ENDS
;	COMDAT ??_C@_0CC@BDEEHALJ@?$CF?4200s?$CI?$CJ?5keywords?5must?5be?5string@
CONST	SEGMENT
??_C@_0CC@BDEEHALJ@?$CF?4200s?$CI?$CJ?5keywords?5must?5be?5string@ DB '%.'
	DB	'200s() keywords must be strings', 00H	; `string'
; Function compile flags: /Ogtpy
CONST	ENDS
;	COMDAT __Pyx_ParseOptionalKeywords
_TEXT	SEGMENT
value$ = 32
pos$ = 40
kwds$ = 96
key$ = 104
argnames$ = 104
kwds2$ = 112
values$ = 120
num_pos_args$ = 128
function_name$ = 136
__Pyx_ParseOptionalKeywords PROC			; COMDAT

; 22566: {

	mov	r11, rsp
	mov	QWORD PTR [r11+8], rbx
	mov	QWORD PTR [r11+24], rbp
	push	rsi
	push	rdi
	push	r12
	push	r13
	push	r14
	sub	rsp, 48					; 00000030H

; 22567:     PyObject *key = 0, *value = 0;

	xor	eax, eax
	mov	r12, r9
	mov	r13, r8
	mov	QWORD PTR [r11+16], rax
	mov	QWORD PTR [r11-56], rax

; 22568:     Py_ssize_t pos = 0;

	mov	QWORD PTR [r11-48], rax

; 22569:     PyObject*** name;
; 22570:     PyObject*** first_kw_arg = argnames + num_pos_args;

	mov	rax, QWORD PTR num_pos_args$[rsp]
	mov	rbp, rdx

; 22571:     while (PyDict_Next(kwds, &pos, &key, &value)) {

	lea	r9, QWORD PTR [r11-56]
	lea	rsi, QWORD PTR [rdx+rax*8]
	lea	r8, QWORD PTR [r11+16]
	lea	rdx, QWORD PTR [r11-48]
	mov	r14, rcx
	call	QWORD PTR __imp_PyDict_Next
	test	eax, eax
	je	$LN33@Pyx_ParseO
	npad	9
$LL34@Pyx_ParseO:

; 22572:         name = first_kw_arg;
; 22573:         while (*name && (**name != key)) name++;

	mov	r8, QWORD PTR [rsi]
	mov	rdx, QWORD PTR key$[rsp]
	mov	rcx, rsi
	test	r8, r8
	je	$LN31@Pyx_ParseO
	mov	rax, r8
$LL32@Pyx_ParseO:
	cmp	QWORD PTR [rax], rdx
	je	$LN31@Pyx_ParseO
	mov	rax, QWORD PTR [rcx+8]
	add	rcx, 8
	test	rax, rax
	jne	SHORT $LL32@Pyx_ParseO
$LN30@Pyx_ParseO:

; 22577:         }
; 22578:         name = first_kw_arg;
; 22579:         #if PY_MAJOR_VERSION < 3
; 22580:         if (likely(PyString_CheckExact(key)) || likely(PyString_Check(key))) {

	mov	rax, QWORD PTR __imp_PyString_Type
	mov	rbx, rsi
	cmp	QWORD PTR [rdx+8], rax
	je	$LN50@Pyx_ParseO
	mov	rax, QWORD PTR [rdx+8]
	mov	ecx, DWORD PTR [rax+168]
	bt	ecx, 27
	jb	$LN50@Pyx_ParseO

; 22599:                 }
; 22600:             }
; 22601:         } else
; 22602:         #endif
; 22603:         if (likely(PyUnicode_Check(key))) {

	bt	ecx, 28
	jae	$invalid_keyword_type$29253

; 22604:             while (*name) {

	test	r8, r8
	je	SHORT $LN71@Pyx_ParseO
$LL14@Pyx_ParseO:

; 22605:                 int cmp = (**name == key) ? 0 :
; 22606:                 #if !CYTHON_COMPILING_IN_PYPY && PY_MAJOR_VERSION >= 3
; 22607:                     (PyUnicode_GET_SIZE(**name) != PyUnicode_GET_SIZE(key)) ? 1 :
; 22608:                 #endif
; 22609:                     PyUnicode_Compare(**name, key);

	mov	rcx, QWORD PTR [rbx]
	cmp	QWORD PTR [rcx], rdx
	je	SHORT $LN53@Pyx_ParseO
	mov	rcx, QWORD PTR [rcx]
	call	QWORD PTR __imp_PyUnicodeUCS2_Compare
	mov	edi, eax

; 22610:                 if (cmp < 0 && unlikely(PyErr_Occurred())) goto bad;

	test	eax, eax
	jns	SHORT $LN12@Pyx_ParseO
	call	QWORD PTR __imp_PyErr_Occurred
	test	rax, rax
	jne	$bad$29241
$LN12@Pyx_ParseO:

; 22604:             while (*name) {

	mov	rdx, QWORD PTR key$[rsp]

; 22611:                 if (cmp == 0) {

	test	edi, edi
	je	SHORT $LN53@Pyx_ParseO

; 22613:                     break;
; 22614:                 }
; 22615:                 name++;

	add	rbx, 8
	cmp	QWORD PTR [rbx], 0
	jne	SHORT $LL14@Pyx_ParseO

; 22616:             }
; 22617:             if (*name) continue;

	jmp	SHORT $LN64@Pyx_ParseO
$LN31@Pyx_ParseO:

; 22574:         if (*name) {

	cmp	QWORD PTR [rcx], 0
	je	SHORT $LN30@Pyx_ParseO

; 22575:             values[name-argnames] = value;

	mov	rax, QWORD PTR value$[rsp]
	sub	rcx, rbp
	sar	rcx, 3
	mov	QWORD PTR [r12+rcx*8], rax

; 22576:             continue;

	jmp	$LN2@Pyx_ParseO
$LN53@Pyx_ParseO:

; 22612:                     values[name-argnames] = value;

	mov	rax, QWORD PTR value$[rsp]
	mov	rcx, rbx
	sub	rcx, rbp
	sar	rcx, 3
	mov	QWORD PTR [r12+rcx*8], rax
$LN71@Pyx_ParseO:

; 22616:             }
; 22617:             if (*name) continue;

	cmp	QWORD PTR [rbx], 0
	jne	$LN2@Pyx_ParseO
$LN64@Pyx_ParseO:

; 22618:             else {
; 22619:                 PyObject*** argname = argnames;

	mov	rbx, rbp

; 22620:                 while (argname != first_kw_arg) {

	cmp	rbp, rsi
	je	$LN82@Pyx_ParseO
$LL8@Pyx_ParseO:

; 22621:                     int cmp = (**argname == key) ? 0 :
; 22622:                     #if !CYTHON_COMPILING_IN_PYPY && PY_MAJOR_VERSION >= 3
; 22623:                         (PyUnicode_GET_SIZE(**argname) != PyUnicode_GET_SIZE(key)) ? 1 :
; 22624:                     #endif
; 22625:                         PyUnicode_Compare(**argname, key);

	mov	rcx, QWORD PTR [rbx]
	cmp	QWORD PTR [rcx], rdx
	je	$arg_passed_twice$29232
	mov	rcx, QWORD PTR [rcx]
	call	QWORD PTR __imp_PyUnicodeUCS2_Compare
	mov	edi, eax

; 22626:                     if (cmp < 0 && unlikely(PyErr_Occurred())) goto bad;

	test	eax, eax
	jns	SHORT $LN6@Pyx_ParseO
	call	QWORD PTR __imp_PyErr_Occurred
	test	rax, rax
	jne	$bad$29241
$LN6@Pyx_ParseO:

; 22627:                     if (cmp == 0) goto arg_passed_twice;

	test	edi, edi
	je	$LN75@Pyx_ParseO
	mov	rdx, QWORD PTR key$[rsp]

; 22628:                     argname++;

	add	rbx, 8
	cmp	rbx, rsi
	jne	SHORT $LL8@Pyx_ParseO

; 22629:                 }
; 22630:             }
; 22631:         } else

	jmp	$LN82@Pyx_ParseO
$LN50@Pyx_ParseO:

; 22581:             while (*name) {

	test	r8, r8
	je	SHORT $LN74@Pyx_ParseO
	npad	3
$LL27@Pyx_ParseO:

; 22582:                 if ((CYTHON_COMPILING_IN_PYPY || PyString_GET_SIZE(**name) == PyString_GET_SIZE(key))
; 22583:                         && _PyString_Eq(**name, key)) {

	mov	rax, QWORD PTR [rbx]
	mov	rcx, QWORD PTR [rax]
	mov	rax, QWORD PTR [rdx+16]
	cmp	QWORD PTR [rcx+16], rax
	jne	SHORT $LN25@Pyx_ParseO
	call	QWORD PTR __imp__PyString_Eq
	mov	rdx, QWORD PTR key$[rsp]
	test	eax, eax
	jne	SHORT $LN56@Pyx_ParseO
$LN25@Pyx_ParseO:

; 22585:                     break;
; 22586:                 }
; 22587:                 name++;

	add	rbx, 8
	cmp	QWORD PTR [rbx], 0
	jne	SHORT $LL27@Pyx_ParseO

; 22581:             while (*name) {

	jmp	SHORT $LN65@Pyx_ParseO
$LN56@Pyx_ParseO:

; 22584:                     values[name-argnames] = value;

	mov	rax, QWORD PTR value$[rsp]
	mov	rcx, rbx
	sub	rcx, rbp
	sar	rcx, 3
	mov	QWORD PTR [r12+rcx*8], rax
$LN74@Pyx_ParseO:

; 22588:             }
; 22589:             if (*name) continue;

	cmp	QWORD PTR [rbx], 0
	jne	SHORT $LN2@Pyx_ParseO
$LN65@Pyx_ParseO:

; 22590:             else {
; 22591:                 PyObject*** argname = argnames;

	mov	rbx, rbp

; 22592:                 while (argname != first_kw_arg) {

	cmp	rbp, rsi
	je	SHORT $LN82@Pyx_ParseO
	npad	4
$LL21@Pyx_ParseO:

; 22593:                     if ((**argname == key) || (
; 22594:                             (CYTHON_COMPILING_IN_PYPY || PyString_GET_SIZE(**argname) == PyString_GET_SIZE(key))
; 22595:                              && _PyString_Eq(**argname, key))) {

	mov	rax, QWORD PTR [rbx]
	cmp	QWORD PTR [rax], rdx
	je	$arg_passed_twice$29232
	mov	rcx, QWORD PTR [rax]
	mov	rax, QWORD PTR [rdx+16]
	cmp	QWORD PTR [rcx+16], rax
	jne	SHORT $LN19@Pyx_ParseO
	call	QWORD PTR __imp__PyString_Eq
	test	eax, eax
	jne	$LN75@Pyx_ParseO
	mov	rdx, QWORD PTR key$[rsp]
$LN19@Pyx_ParseO:

; 22596:                         goto arg_passed_twice;
; 22597:                     }
; 22598:                     argname++;

	add	rbx, 8
	cmp	rbx, rsi
	jne	SHORT $LL21@Pyx_ParseO
$LN82@Pyx_ParseO:

; 22632:             goto invalid_keyword_type;
; 22633:         if (kwds2) {

	test	r13, r13
	je	$invalid_keyword$29257

; 22634:             if (unlikely(PyDict_SetItem(kwds2, key, value))) goto bad;

	mov	r8, QWORD PTR value$[rsp]
	mov	rcx, r13
	call	QWORD PTR __imp_PyDict_SetItem
	test	eax, eax
	jne	$bad$29241
$LN2@Pyx_ParseO:

; 22571:     while (PyDict_Next(kwds, &pos, &key, &value)) {

	lea	r9, QWORD PTR value$[rsp]
	lea	r8, QWORD PTR key$[rsp]
	lea	rdx, QWORD PTR pos$[rsp]
	mov	rcx, r14
	call	QWORD PTR __imp_PyDict_Next
	test	eax, eax
	jne	$LL34@Pyx_ParseO
$LN33@Pyx_ParseO:

; 22635:         } else {
; 22636:             goto invalid_keyword;
; 22637:         }
; 22638:     }
; 22639:     return 0;

	xor	eax, eax
$LN35@Pyx_ParseO:

; 22658: }

	mov	rbx, QWORD PTR [rsp+96]
	mov	rbp, QWORD PTR [rsp+112]
	add	rsp, 48					; 00000030H
	pop	r14
	pop	r13
	pop	r12
	pop	rdi
	pop	rsi
	ret	0
$invalid_keyword_type$29253:

; 22643: invalid_keyword_type:
; 22644:     PyErr_Format(PyExc_TypeError,
; 22645:         "%.200s() keywords must be strings", function_name);

	mov	rcx, QWORD PTR __imp_PyExc_TypeError
	mov	r8, QWORD PTR function_name$[rsp]
	lea	rdx, OFFSET FLAT:??_C@_0CC@BDEEHALJ@?$CF?4200s?$CI?$CJ?5keywords?5must?5be?5string@
	mov	rcx, QWORD PTR [rcx]
	call	QWORD PTR __imp_PyErr_Format

; 22652:     #else
; 22653:         "%s() got an unexpected keyword argument '%U'",
; 22654:         function_name, key);
; 22655:     #endif
; 22656: bad:
; 22657:     return -1;

	or	eax, -1
	jmp	SHORT $LN35@Pyx_ParseO
$LN75@Pyx_ParseO:

; 22646:     goto bad;

	mov	rdx, QWORD PTR key$[rsp]
$arg_passed_twice$29232:

; 22640: arg_passed_twice:
; 22641:     __Pyx_RaiseDoubleKeywordsError(function_name, key);

	mov	rcx, rdx
	call	QWORD PTR __imp_PyString_AsString
	lea	rdx, OFFSET FLAT:??_C@_0DD@KBCIFDEA@?$CFs?$CI?$CJ?5got?5multiple?5values?5for?5key@

; 22642:     goto bad;

	jmp	SHORT $LN83@Pyx_ParseO
$invalid_keyword$29257:

; 22647: invalid_keyword:
; 22648:     PyErr_Format(PyExc_TypeError,
; 22649:     #if PY_MAJOR_VERSION < 3
; 22650:         "%.200s() got an unexpected keyword argument '%.200s'",
; 22651:         function_name, PyString_AsString(key));

	mov	rcx, rdx
	call	QWORD PTR __imp_PyString_AsString
	lea	rdx, OFFSET FLAT:??_C@_0DF@PJIJCGHB@?$CF?4200s?$CI?$CJ?5got?5an?5unexpected?5keywo@
$LN83@Pyx_ParseO:
	mov	rcx, QWORD PTR __imp_PyExc_TypeError
	mov	r8, QWORD PTR function_name$[rsp]
	mov	r9, rax
	mov	rcx, QWORD PTR [rcx]
	call	QWORD PTR __imp_PyErr_Format
$bad$29241:

; 22652:     #else
; 22653:         "%s() got an unexpected keyword argument '%U'",
; 22654:         function_name, key);
; 22655:     #endif
; 22656: bad:
; 22657:     return -1;

	or	eax, -1
	jmp	$LN35@Pyx_ParseO
__Pyx_ParseOptionalKeywords ENDP
; Function compile flags: /Ogtpy
_TEXT	ENDS
;	COMDAT __Pyx_Is_Little_Endian
_TEXT	SEGMENT
__Pyx_Is_Little_Endian PROC				; COMDAT

; 22684:   union {
; 22685:     uint32_t u32;
; 22686:     uint8_t u8[4];
; 22687:   } S;
; 22688:   S.u32 = 0x01020304;
; 22689:   return S.u8[0] == 4;

	mov	eax, 1

; 22690: }

	ret	0
__Pyx_Is_Little_Endian ENDP
_TEXT	ENDS
PUBLIC	??_C@_0N@LEBCHALN@buffer?5dtype?$AA@		; `string'
;	COMDAT ??_C@_0N@LEBCHALN@buffer?5dtype?$AA@
CONST	SEGMENT
??_C@_0N@LEBCHALN@buffer?5dtype?$AA@ DB 'buffer dtype', 00H ; `string'
; Function compile flags: /Ogtpy
CONST	ENDS
;	COMDAT __Pyx_BufFmt_Init
_TEXT	SEGMENT
ctx$ = 8
stack$ = 16
type$ = 24
__Pyx_BufFmt_Init PROC					; COMDAT

; 22696:   stack[0].field = &ctx->root;
; 22697:   stack[0].parent_offset = 0;

	xor	r10d, r10d

; 22698:   ctx->root.type = type;
; 22699:   ctx->root.name = "buffer dtype";

	lea	rax, OFFSET FLAT:??_C@_0N@LEBCHALN@buffer?5dtype?$AA@
	mov	r9, rcx
	mov	QWORD PTR [rdx+8], r10
	mov	QWORD PTR [rcx+8], rax

; 22700:   ctx->root.offset = 0;
; 22701:   ctx->head = stack;

	mov	QWORD PTR [rcx+24], rdx
	mov	QWORD PTR [rcx], r8
	mov	QWORD PTR [rcx+16], r10

; 22702:   ctx->head->field = &ctx->root;

	mov	QWORD PTR [rdx], rcx

; 22703:   ctx->fmt_offset = 0;
; 22704:   ctx->head->parent_offset = 0;

	mov	rax, QWORD PTR [rcx+24]
	mov	QWORD PTR [rcx+32], r10
	mov	QWORD PTR [rax+8], r10

; 22705:   ctx->new_packmode = '@';

	mov	BYTE PTR [rcx+69], 64			; 00000040H

; 22706:   ctx->enc_packmode = '@';

	mov	BYTE PTR [rcx+70], 64			; 00000040H

; 22707:   ctx->new_count = 1;

	mov	QWORD PTR [rcx+40], 1

; 22708:   ctx->enc_count = 0;

	mov	QWORD PTR [rcx+48], r10

; 22709:   ctx->enc_type = 0;

	mov	BYTE PTR [rcx+68], r10b

; 22710:   ctx->is_complex = 0;

	mov	DWORD PTR [rcx+64], r10d

; 22711:   ctx->is_valid_array = 0;

	mov	BYTE PTR [rcx+71], r10b

; 22712:   ctx->struct_alignment = 0;

	mov	QWORD PTR [rcx+56], r10

; 22713:   while (type->typegroup == 'S') {

	cmp	BYTE PTR [r8+92], 83			; 00000053H
